   1              		.cpu cortex-m0
   2              		.fpu softvfp
   3              		.eabi_attribute 20, 1
   4              		.eabi_attribute 21, 1
   5              		.eabi_attribute 23, 3
   6              		.eabi_attribute 24, 1
   7              		.eabi_attribute 25, 1
   8              		.eabi_attribute 26, 1
   9              		.eabi_attribute 30, 6
  10              		.eabi_attribute 34, 0
  11              		.eabi_attribute 18, 4
  12              		.code	16
  13              		.file	"BitIoLdd7.c"
  14              		.text
  15              	.Ltext0:
  16              		.cfi_sections	.debug_frame
  17              		.section	.bss.DeviceDataPrv__DEFAULT_RTOS_ALLOC,"aw",%nobits
  18              		.align	2
  21              	DeviceDataPrv__DEFAULT_RTOS_ALLOC:
  22 0000 00000000 		.space	4
  23              		.section	.text.BitIoLdd7_Init,"ax",%progbits
  24              		.align	2
  25              		.global	BitIoLdd7_Init
  26              		.code	16
  27              		.thumb_func
  29              	BitIoLdd7_Init:
  30              	.LFB0:
  31              		.file 1 "../Generated_Code/BitIoLdd7.c"
   1:../Generated_Code/BitIoLdd7.c **** /* ###################################################################
   2:../Generated_Code/BitIoLdd7.c **** **     This component module is generated by Processor Expert. Do not modify it.
   3:../Generated_Code/BitIoLdd7.c **** **     Filename    : BitIoLdd7.c
   4:../Generated_Code/BitIoLdd7.c **** **     Project     : ProcessorExpert
   5:../Generated_Code/BitIoLdd7.c **** **     Processor   : MKL25Z128VLK4
   6:../Generated_Code/BitIoLdd7.c **** **     Component   : BitIO_LDD
   7:../Generated_Code/BitIoLdd7.c **** **     Version     : Component 01.033, Driver 01.03, CPU db: 3.00.000
   8:../Generated_Code/BitIoLdd7.c **** **     Compiler    : GNU C Compiler
   9:../Generated_Code/BitIoLdd7.c **** **     Date/Time   : 2019-04-17, 14:08, # CodeGen: 68
  10:../Generated_Code/BitIoLdd7.c **** **     Abstract    :
  11:../Generated_Code/BitIoLdd7.c **** **         The HAL BitIO component provides a low level API for unified
  12:../Generated_Code/BitIoLdd7.c **** **         access to general purpose digital input/output pins across
  13:../Generated_Code/BitIoLdd7.c **** **         various device designs.
  14:../Generated_Code/BitIoLdd7.c **** **
  15:../Generated_Code/BitIoLdd7.c **** **         RTOS drivers using HAL BitIO API are simpler and more
  16:../Generated_Code/BitIoLdd7.c **** **         portable to various microprocessors.
  17:../Generated_Code/BitIoLdd7.c **** **     Settings    :
  18:../Generated_Code/BitIoLdd7.c **** **          Component name                                 : BitIoLdd7
  19:../Generated_Code/BitIoLdd7.c **** **          Pin for I/O                                    : ADC0_SE11/TSI0_CH15/PTC2/I2C1_SDA/TPM0
  20:../Generated_Code/BitIoLdd7.c **** **          Pin signal                                     : 
  21:../Generated_Code/BitIoLdd7.c **** **          Direction                                      : Output
  22:../Generated_Code/BitIoLdd7.c **** **          Initialization                                 : 
  23:../Generated_Code/BitIoLdd7.c **** **            Init. direction                              : Output
  24:../Generated_Code/BitIoLdd7.c **** **            Init. value                                  : 0
  25:../Generated_Code/BitIoLdd7.c **** **            Auto initialization                          : yes
  26:../Generated_Code/BitIoLdd7.c **** **          Safe mode                                      : yes
  27:../Generated_Code/BitIoLdd7.c **** **     Contents    :
  28:../Generated_Code/BitIoLdd7.c **** **         Init   - LDD_TDeviceData* BitIoLdd7_Init(LDD_TUserData *UserDataPtr);
  29:../Generated_Code/BitIoLdd7.c **** **         GetVal - bool BitIoLdd7_GetVal(LDD_TDeviceData *DeviceDataPtr);
  30:../Generated_Code/BitIoLdd7.c **** **         PutVal - void BitIoLdd7_PutVal(LDD_TDeviceData *DeviceDataPtr, bool Val);
  31:../Generated_Code/BitIoLdd7.c **** **         ClrVal - void BitIoLdd7_ClrVal(LDD_TDeviceData *DeviceDataPtr);
  32:../Generated_Code/BitIoLdd7.c **** **         SetVal - void BitIoLdd7_SetVal(LDD_TDeviceData *DeviceDataPtr);
  33:../Generated_Code/BitIoLdd7.c **** **
  34:../Generated_Code/BitIoLdd7.c **** **     Copyright : 1997 - 2014 Freescale Semiconductor, Inc. 
  35:../Generated_Code/BitIoLdd7.c **** **     All Rights Reserved.
  36:../Generated_Code/BitIoLdd7.c **** **     
  37:../Generated_Code/BitIoLdd7.c **** **     Redistribution and use in source and binary forms, with or without modification,
  38:../Generated_Code/BitIoLdd7.c **** **     are permitted provided that the following conditions are met:
  39:../Generated_Code/BitIoLdd7.c **** **     
  40:../Generated_Code/BitIoLdd7.c **** **     o Redistributions of source code must retain the above copyright notice, this list
  41:../Generated_Code/BitIoLdd7.c **** **       of conditions and the following disclaimer.
  42:../Generated_Code/BitIoLdd7.c **** **     
  43:../Generated_Code/BitIoLdd7.c **** **     o Redistributions in binary form must reproduce the above copyright notice, this
  44:../Generated_Code/BitIoLdd7.c **** **       list of conditions and the following disclaimer in the documentation and/or
  45:../Generated_Code/BitIoLdd7.c **** **       other materials provided with the distribution.
  46:../Generated_Code/BitIoLdd7.c **** **     
  47:../Generated_Code/BitIoLdd7.c **** **     o Neither the name of Freescale Semiconductor, Inc. nor the names of its
  48:../Generated_Code/BitIoLdd7.c **** **       contributors may be used to endorse or promote products derived from this
  49:../Generated_Code/BitIoLdd7.c **** **       software without specific prior written permission.
  50:../Generated_Code/BitIoLdd7.c **** **     
  51:../Generated_Code/BitIoLdd7.c **** **     THIS SOFTWARE IS PROVIDED BY THE COPYRIGHT HOLDERS AND CONTRIBUTORS "AS IS" AND
  52:../Generated_Code/BitIoLdd7.c **** **     ANY EXPRESS OR IMPLIED WARRANTIES, INCLUDING, BUT NOT LIMITED TO, THE IMPLIED
  53:../Generated_Code/BitIoLdd7.c **** **     WARRANTIES OF MERCHANTABILITY AND FITNESS FOR A PARTICULAR PURPOSE ARE
  54:../Generated_Code/BitIoLdd7.c **** **     DISCLAIMED. IN NO EVENT SHALL THE COPYRIGHT HOLDER OR CONTRIBUTORS BE LIABLE FOR
  55:../Generated_Code/BitIoLdd7.c **** **     ANY DIRECT, INDIRECT, INCIDENTAL, SPECIAL, EXEMPLARY, OR CONSEQUENTIAL DAMAGES
  56:../Generated_Code/BitIoLdd7.c **** **     (INCLUDING, BUT NOT LIMITED TO, PROCUREMENT OF SUBSTITUTE GOODS OR SERVICES;
  57:../Generated_Code/BitIoLdd7.c **** **     LOSS OF USE, DATA, OR PROFITS; OR BUSINESS INTERRUPTION) HOWEVER CAUSED AND ON
  58:../Generated_Code/BitIoLdd7.c **** **     ANY THEORY OF LIABILITY, WHETHER IN CONTRACT, STRICT LIABILITY, OR TORT
  59:../Generated_Code/BitIoLdd7.c **** **     (INCLUDING NEGLIGENCE OR OTHERWISE) ARISING IN ANY WAY OUT OF THE USE OF THIS
  60:../Generated_Code/BitIoLdd7.c **** **     SOFTWARE, EVEN IF ADVISED OF THE POSSIBILITY OF SUCH DAMAGE.
  61:../Generated_Code/BitIoLdd7.c **** **     
  62:../Generated_Code/BitIoLdd7.c **** **     http: www.freescale.com
  63:../Generated_Code/BitIoLdd7.c **** **     mail: support@freescale.com
  64:../Generated_Code/BitIoLdd7.c **** ** ###################################################################*/
  65:../Generated_Code/BitIoLdd7.c **** /*!
  66:../Generated_Code/BitIoLdd7.c **** ** @file BitIoLdd7.c
  67:../Generated_Code/BitIoLdd7.c **** ** @version 01.03
  68:../Generated_Code/BitIoLdd7.c **** ** @brief
  69:../Generated_Code/BitIoLdd7.c **** **         The HAL BitIO component provides a low level API for unified
  70:../Generated_Code/BitIoLdd7.c **** **         access to general purpose digital input/output pins across
  71:../Generated_Code/BitIoLdd7.c **** **         various device designs.
  72:../Generated_Code/BitIoLdd7.c **** **
  73:../Generated_Code/BitIoLdd7.c **** **         RTOS drivers using HAL BitIO API are simpler and more
  74:../Generated_Code/BitIoLdd7.c **** **         portable to various microprocessors.
  75:../Generated_Code/BitIoLdd7.c **** */         
  76:../Generated_Code/BitIoLdd7.c **** /*!
  77:../Generated_Code/BitIoLdd7.c **** **  @addtogroup BitIoLdd7_module BitIoLdd7 module documentation
  78:../Generated_Code/BitIoLdd7.c **** **  @{
  79:../Generated_Code/BitIoLdd7.c **** */         
  80:../Generated_Code/BitIoLdd7.c **** 
  81:../Generated_Code/BitIoLdd7.c **** /* MODULE BitIoLdd7. */
  82:../Generated_Code/BitIoLdd7.c **** 
  83:../Generated_Code/BitIoLdd7.c **** /* {Default RTOS Adapter} No RTOS includes */
  84:../Generated_Code/BitIoLdd7.c **** #include "BitIoLdd7.h"
  85:../Generated_Code/BitIoLdd7.c **** 
  86:../Generated_Code/BitIoLdd7.c **** #ifdef __cplusplus
  87:../Generated_Code/BitIoLdd7.c **** extern "C" {
  88:../Generated_Code/BitIoLdd7.c **** #endif 
  89:../Generated_Code/BitIoLdd7.c **** 
  90:../Generated_Code/BitIoLdd7.c **** typedef struct {
  91:../Generated_Code/BitIoLdd7.c ****   LDD_TUserData *UserDataPtr;          /* Pointer to user data */
  92:../Generated_Code/BitIoLdd7.c **** } BitIoLdd7_TDeviceData;               /* Device data structure type */
  93:../Generated_Code/BitIoLdd7.c **** 
  94:../Generated_Code/BitIoLdd7.c **** typedef BitIoLdd7_TDeviceData *BitIoLdd7_TDeviceDataPtr ; /* Pointer to the device data structure. 
  95:../Generated_Code/BitIoLdd7.c **** 
  96:../Generated_Code/BitIoLdd7.c **** /* {Default RTOS Adapter} Static object used for simulation of dynamic driver memory allocation */
  97:../Generated_Code/BitIoLdd7.c **** static BitIoLdd7_TDeviceData DeviceDataPrv__DEFAULT_RTOS_ALLOC;
  98:../Generated_Code/BitIoLdd7.c **** /*
  99:../Generated_Code/BitIoLdd7.c **** ** ===================================================================
 100:../Generated_Code/BitIoLdd7.c **** **     Method      :  BitIoLdd7_Init (component BitIO_LDD)
 101:../Generated_Code/BitIoLdd7.c **** */
 102:../Generated_Code/BitIoLdd7.c **** /*!
 103:../Generated_Code/BitIoLdd7.c **** **     @brief
 104:../Generated_Code/BitIoLdd7.c **** **         Initializes the device. Allocates memory for the device data
 105:../Generated_Code/BitIoLdd7.c **** **         structure, allocates interrupt vectors and sets interrupt
 106:../Generated_Code/BitIoLdd7.c **** **         priority, sets pin routing, sets timing, etc. If the "Enable
 107:../Generated_Code/BitIoLdd7.c **** **         in init. code" is set to "yes" value then the device is also
 108:../Generated_Code/BitIoLdd7.c **** **         enabled(see the description of the Enable() method). In this
 109:../Generated_Code/BitIoLdd7.c **** **         case the Enable() method is not necessary and needn't to be
 110:../Generated_Code/BitIoLdd7.c **** **         generated. 
 111:../Generated_Code/BitIoLdd7.c **** **     @param
 112:../Generated_Code/BitIoLdd7.c **** **         UserDataPtr     - Pointer to the user or
 113:../Generated_Code/BitIoLdd7.c **** **                           RTOS specific data. This pointer will be
 114:../Generated_Code/BitIoLdd7.c **** **                           passed as an event or callback parameter.
 115:../Generated_Code/BitIoLdd7.c **** **     @return
 116:../Generated_Code/BitIoLdd7.c **** **                         - Pointer to the dynamically allocated private
 117:../Generated_Code/BitIoLdd7.c **** **                           structure or NULL if there was an error.
 118:../Generated_Code/BitIoLdd7.c **** */
 119:../Generated_Code/BitIoLdd7.c **** /* ===================================================================*/
 120:../Generated_Code/BitIoLdd7.c **** LDD_TDeviceData* BitIoLdd7_Init(LDD_TUserData *UserDataPtr)
 121:../Generated_Code/BitIoLdd7.c **** {
  32              		.loc 1 121 0
  33              		.cfi_startproc
  34 0000 80B5     		push	{r7, lr}
  35              	.LCFI0:
  36              		.cfi_def_cfa_offset 8
  37              		.cfi_offset 7, -8
  38              		.cfi_offset 14, -4
  39 0002 84B0     		sub	sp, sp, #16
  40              	.LCFI1:
  41              		.cfi_def_cfa_offset 24
  42 0004 00AF     		add	r7, sp, #0
  43              	.LCFI2:
  44              		.cfi_def_cfa_register 7
  45 0006 7860     		str	r0, [r7, #4]
 122:../Generated_Code/BitIoLdd7.c ****   /* Allocate device structure */
 123:../Generated_Code/BitIoLdd7.c ****   BitIoLdd7_TDeviceDataPtr DeviceDataPrv;
 124:../Generated_Code/BitIoLdd7.c **** 
 125:../Generated_Code/BitIoLdd7.c ****   /* {Default RTOS Adapter} Driver memory allocation: Dynamic allocation is simulated by a pointer 
 126:../Generated_Code/BitIoLdd7.c ****   DeviceDataPrv = &DeviceDataPrv__DEFAULT_RTOS_ALLOC;
  46              		.loc 1 126 0
  47 0008 104B     		ldr	r3, .L3
  48 000a FB60     		str	r3, [r7, #12]
 127:../Generated_Code/BitIoLdd7.c ****   DeviceDataPrv->UserDataPtr = UserDataPtr; /* Store the RTOS device structure */
  49              		.loc 1 127 0
  50 000c FB68     		ldr	r3, [r7, #12]
  51 000e 7A68     		ldr	r2, [r7, #4]
  52 0010 1A60     		str	r2, [r3]
 128:../Generated_Code/BitIoLdd7.c ****   /* Configure pin as output */
 129:../Generated_Code/BitIoLdd7.c ****   /* GPIOC_PDDR: PDD|=4 */
 130:../Generated_Code/BitIoLdd7.c ****   GPIOC_PDDR |= GPIO_PDDR_PDD(0x04);
  53              		.loc 1 130 0
  54 0012 0F4B     		ldr	r3, .L3+4
  55 0014 0E4A     		ldr	r2, .L3+4
  56 0016 5269     		ldr	r2, [r2, #20]
  57 0018 0421     		mov	r1, #4
  58 001a 0A43     		orr	r2, r1
  59 001c 5A61     		str	r2, [r3, #20]
 131:../Generated_Code/BitIoLdd7.c ****   /* Set initialization value */
 132:../Generated_Code/BitIoLdd7.c ****   /* GPIOC_PDOR: PDO&=~4 */
 133:../Generated_Code/BitIoLdd7.c ****   GPIOC_PDOR &= (uint32_t)~(uint32_t)(GPIO_PDOR_PDO(0x04));
  60              		.loc 1 133 0
  61 001e 0C4B     		ldr	r3, .L3+4
  62 0020 0B4A     		ldr	r2, .L3+4
  63 0022 1268     		ldr	r2, [r2]
  64 0024 0421     		mov	r1, #4
  65 0026 8A43     		bic	r2, r1
  66 0028 1A60     		str	r2, [r3]
 134:../Generated_Code/BitIoLdd7.c ****   /* Initialization of Port Control register */
 135:../Generated_Code/BitIoLdd7.c ****   /* PORTC_PCR2: ISF=0,MUX=1 */
 136:../Generated_Code/BitIoLdd7.c ****   PORTC_PCR2 = (uint32_t)((PORTC_PCR2 & (uint32_t)~(uint32_t)(
  67              		.loc 1 136 0
  68 002a 0A4B     		ldr	r3, .L3+8
  69 002c 094A     		ldr	r2, .L3+8
  70 002e 9168     		ldr	r1, [r2, #8]
  71 0030 094A     		ldr	r2, .L3+12
  72 0032 0A40     		and	r2, r1
  73 0034 8021     		mov	r1, #128
  74 0036 4900     		lsl	r1, r1, #1
  75 0038 0A43     		orr	r2, r1
  76 003a 9A60     		str	r2, [r3, #8]
 137:../Generated_Code/BitIoLdd7.c ****                 PORT_PCR_ISF_MASK |
 138:../Generated_Code/BitIoLdd7.c ****                 PORT_PCR_MUX(0x06)
 139:../Generated_Code/BitIoLdd7.c ****                )) | (uint32_t)(
 140:../Generated_Code/BitIoLdd7.c ****                 PORT_PCR_MUX(0x01)
 141:../Generated_Code/BitIoLdd7.c ****                ));
 142:../Generated_Code/BitIoLdd7.c ****   /* Registration of the device structure */
 143:../Generated_Code/BitIoLdd7.c ****   PE_LDD_RegisterDeviceStructure(PE_LDD_COMPONENT_BitIoLdd7_ID,DeviceDataPrv);
  77              		.loc 1 143 0
  78 003c 074B     		ldr	r3, .L3+16
  79 003e FA68     		ldr	r2, [r7, #12]
  80 0040 1A62     		str	r2, [r3, #32]
 144:../Generated_Code/BitIoLdd7.c ****   return ((LDD_TDeviceData *)DeviceDataPrv);
  81              		.loc 1 144 0
  82 0042 FB68     		ldr	r3, [r7, #12]
 145:../Generated_Code/BitIoLdd7.c **** }
  83              		.loc 1 145 0
  84 0044 181C     		mov	r0, r3
  85 0046 BD46     		mov	sp, r7
  86 0048 04B0     		add	sp, sp, #16
  87              		@ sp needed for prologue
  88 004a 80BD     		pop	{r7, pc}
  89              	.L4:
  90              		.align	2
  91              	.L3:
  92 004c 00000000 		.word	DeviceDataPrv__DEFAULT_RTOS_ALLOC
  93 0050 80F00F40 		.word	1074786432
  94 0054 00B00440 		.word	1074049024
  95 0058 FFF8FFFE 		.word	-16779009
  96 005c 00000000 		.word	PE_LDD_DeviceDataList
  97              		.cfi_endproc
  98              	.LFE0:
 100              		.section	.text.BitIoLdd7_GetVal,"ax",%progbits
 101              		.align	2
 102              		.global	BitIoLdd7_GetVal
 103              		.code	16
 104              		.thumb_func
 106              	BitIoLdd7_GetVal:
 107              	.LFB1:
 146:../Generated_Code/BitIoLdd7.c **** /*
 147:../Generated_Code/BitIoLdd7.c **** ** ===================================================================
 148:../Generated_Code/BitIoLdd7.c **** **     Method      :  BitIoLdd7_GetVal (component BitIO_LDD)
 149:../Generated_Code/BitIoLdd7.c **** */
 150:../Generated_Code/BitIoLdd7.c **** /*!
 151:../Generated_Code/BitIoLdd7.c **** **     @brief
 152:../Generated_Code/BitIoLdd7.c **** **         Returns the input/output value. If the direction is [input]
 153:../Generated_Code/BitIoLdd7.c **** **         then the input value of the pin is read and returned. If the
 154:../Generated_Code/BitIoLdd7.c **** **         direction is [output] then the last written value is read
 155:../Generated_Code/BitIoLdd7.c **** **         and returned (see <Safe mode> property for limitations).
 156:../Generated_Code/BitIoLdd7.c **** **         This method cannot be disabled if direction is [input].
 157:../Generated_Code/BitIoLdd7.c **** **     @param
 158:../Generated_Code/BitIoLdd7.c **** **         DeviceDataPtr   - Device data structure
 159:../Generated_Code/BitIoLdd7.c **** **                           pointer returned by <Init> method.
 160:../Generated_Code/BitIoLdd7.c **** **     @return
 161:../Generated_Code/BitIoLdd7.c **** **                         - Input or output value. Possible values:
 162:../Generated_Code/BitIoLdd7.c **** **                           <false> - logical "0" (Low level)
 163:../Generated_Code/BitIoLdd7.c **** **                           <true> - logical "1" (High level)
 164:../Generated_Code/BitIoLdd7.c **** */
 165:../Generated_Code/BitIoLdd7.c **** /* ===================================================================*/
 166:../Generated_Code/BitIoLdd7.c **** bool BitIoLdd7_GetVal(LDD_TDeviceData *DeviceDataPtr)
 167:../Generated_Code/BitIoLdd7.c **** {
 108              		.loc 1 167 0
 109              		.cfi_startproc
 110 0000 80B5     		push	{r7, lr}
 111              	.LCFI3:
 112              		.cfi_def_cfa_offset 8
 113              		.cfi_offset 7, -8
 114              		.cfi_offset 14, -4
 115 0002 84B0     		sub	sp, sp, #16
 116              	.LCFI4:
 117              		.cfi_def_cfa_offset 24
 118 0004 00AF     		add	r7, sp, #0
 119              	.LCFI5:
 120              		.cfi_def_cfa_register 7
 121 0006 7860     		str	r0, [r7, #4]
 168:../Generated_Code/BitIoLdd7.c ****   uint32_t PortData;                   /* Port data masked according to the bit used */
 169:../Generated_Code/BitIoLdd7.c **** 
 170:../Generated_Code/BitIoLdd7.c ****   (void)DeviceDataPtr;                 /* Parameter is not used, suppress unused argument warning *
 171:../Generated_Code/BitIoLdd7.c ****   PortData = GPIO_PDD_GetPortDataOutput(BitIoLdd7_MODULE_BASE_ADDRESS) & BitIoLdd7_PORT_MASK;
 122              		.loc 1 171 0
 123 0008 064B     		ldr	r3, .L7
 124 000a 1A68     		ldr	r2, [r3]
 125 000c 0423     		mov	r3, #4
 126 000e 1340     		and	r3, r2
 127 0010 FB60     		str	r3, [r7, #12]
 172:../Generated_Code/BitIoLdd7.c ****   return (PortData != 0U) ? (bool)TRUE : (bool)FALSE;
 128              		.loc 1 172 0
 129 0012 FB68     		ldr	r3, [r7, #12]
 130 0014 5A1E     		sub	r2, r3, #1
 131 0016 9341     		sbc	r3, r3, r2
 132 0018 DBB2     		uxtb	r3, r3
 173:../Generated_Code/BitIoLdd7.c **** }
 133              		.loc 1 173 0
 134 001a 181C     		mov	r0, r3
 135 001c BD46     		mov	sp, r7
 136 001e 04B0     		add	sp, sp, #16
 137              		@ sp needed for prologue
 138 0020 80BD     		pop	{r7, pc}
 139              	.L8:
 140 0022 C046     		.align	2
 141              	.L7:
 142 0024 80F00FF8 		.word	-133173120
 143              		.cfi_endproc
 144              	.LFE1:
 146              		.section	.text.BitIoLdd7_PutVal,"ax",%progbits
 147              		.align	2
 148              		.global	BitIoLdd7_PutVal
 149              		.code	16
 150              		.thumb_func
 152              	BitIoLdd7_PutVal:
 153              	.LFB2:
 174:../Generated_Code/BitIoLdd7.c **** 
 175:../Generated_Code/BitIoLdd7.c **** /*
 176:../Generated_Code/BitIoLdd7.c **** ** ===================================================================
 177:../Generated_Code/BitIoLdd7.c **** **     Method      :  BitIoLdd7_PutVal (component BitIO_LDD)
 178:../Generated_Code/BitIoLdd7.c **** */
 179:../Generated_Code/BitIoLdd7.c **** /*!
 180:../Generated_Code/BitIoLdd7.c **** **     @brief
 181:../Generated_Code/BitIoLdd7.c **** **         The specified output value is set. If the direction is <b>
 182:../Generated_Code/BitIoLdd7.c **** **         input</b>, the component saves the value to a memory or a
 183:../Generated_Code/BitIoLdd7.c **** **         register and this value will be written to the pin after
 184:../Generated_Code/BitIoLdd7.c **** **         switching to the output mode (using <tt>SetDir(TRUE)</tt>;
 185:../Generated_Code/BitIoLdd7.c **** **         see <a href="BitIOProperties.html#SafeMode">Safe mode</a>
 186:../Generated_Code/BitIoLdd7.c **** **         property for limitations). If the direction is <b>output</b>,
 187:../Generated_Code/BitIoLdd7.c **** **         it writes the value to the pin. (Method is available only if
 188:../Generated_Code/BitIoLdd7.c **** **         the direction = <u><tt>output</tt></u> or <u><tt>
 189:../Generated_Code/BitIoLdd7.c **** **         input/output</tt></u>).
 190:../Generated_Code/BitIoLdd7.c **** **     @param
 191:../Generated_Code/BitIoLdd7.c **** **         DeviceDataPtr   - Device data structure
 192:../Generated_Code/BitIoLdd7.c **** **                           pointer returned by <Init> method.
 193:../Generated_Code/BitIoLdd7.c **** **     @param
 194:../Generated_Code/BitIoLdd7.c **** **         Val             - Output value. Possible values:
 195:../Generated_Code/BitIoLdd7.c **** **                           <false> - logical "0" (Low level)
 196:../Generated_Code/BitIoLdd7.c **** **                           <true> - logical "1" (High level)
 197:../Generated_Code/BitIoLdd7.c **** */
 198:../Generated_Code/BitIoLdd7.c **** /* ===================================================================*/
 199:../Generated_Code/BitIoLdd7.c **** void BitIoLdd7_PutVal(LDD_TDeviceData *DeviceDataPtr, bool Val)
 200:../Generated_Code/BitIoLdd7.c **** {
 154              		.loc 1 200 0
 155              		.cfi_startproc
 156 0000 80B5     		push	{r7, lr}
 157              	.LCFI6:
 158              		.cfi_def_cfa_offset 8
 159              		.cfi_offset 7, -8
 160              		.cfi_offset 14, -4
 161 0002 82B0     		sub	sp, sp, #8
 162              	.LCFI7:
 163              		.cfi_def_cfa_offset 16
 164 0004 00AF     		add	r7, sp, #0
 165              	.LCFI8:
 166              		.cfi_def_cfa_register 7
 167 0006 7860     		str	r0, [r7, #4]
 168 0008 0A1C     		mov	r2, r1
 169 000a FB1C     		add	r3, r7, #3
 170 000c 1A70     		strb	r2, [r3]
 201:../Generated_Code/BitIoLdd7.c ****   (void)DeviceDataPtr;                 /* Parameter is not used, suppress unused argument warning *
 202:../Generated_Code/BitIoLdd7.c ****   if (Val) {
 171              		.loc 1 202 0
 172 000e FB1C     		add	r3, r7, #3
 173 0010 1B78     		ldrb	r3, [r3]
 174 0012 002B     		cmp	r3, #0
 175 0014 03D0     		beq	.L10
 203:../Generated_Code/BitIoLdd7.c ****     GPIO_PDD_SetPortDataOutputMask(BitIoLdd7_MODULE_BASE_ADDRESS, BitIoLdd7_PORT_MASK);
 176              		.loc 1 203 0
 177 0016 054B     		ldr	r3, .L12
 178 0018 0422     		mov	r2, #4
 179 001a 5A60     		str	r2, [r3, #4]
 180 001c 02E0     		b	.L9
 181              	.L10:
 204:../Generated_Code/BitIoLdd7.c ****   } else { /* !Val */
 205:../Generated_Code/BitIoLdd7.c ****     GPIO_PDD_ClearPortDataOutputMask(BitIoLdd7_MODULE_BASE_ADDRESS, BitIoLdd7_PORT_MASK);
 182              		.loc 1 205 0
 183 001e 034B     		ldr	r3, .L12
 184 0020 0422     		mov	r2, #4
 185 0022 9A60     		str	r2, [r3, #8]
 186              	.L9:
 206:../Generated_Code/BitIoLdd7.c ****   } /* !Val */
 207:../Generated_Code/BitIoLdd7.c **** }
 187              		.loc 1 207 0
 188 0024 BD46     		mov	sp, r7
 189 0026 02B0     		add	sp, sp, #8
 190              		@ sp needed for prologue
 191 0028 80BD     		pop	{r7, pc}
 192              	.L13:
 193 002a C046     		.align	2
 194              	.L12:
 195 002c 80F00FF8 		.word	-133173120
 196              		.cfi_endproc
 197              	.LFE2:
 199              		.section	.text.BitIoLdd7_ClrVal,"ax",%progbits
 200              		.align	2
 201              		.global	BitIoLdd7_ClrVal
 202              		.code	16
 203              		.thumb_func
 205              	BitIoLdd7_ClrVal:
 206              	.LFB3:
 208:../Generated_Code/BitIoLdd7.c **** 
 209:../Generated_Code/BitIoLdd7.c **** /*
 210:../Generated_Code/BitIoLdd7.c **** ** ===================================================================
 211:../Generated_Code/BitIoLdd7.c **** **     Method      :  BitIoLdd7_ClrVal (component BitIO_LDD)
 212:../Generated_Code/BitIoLdd7.c **** */
 213:../Generated_Code/BitIoLdd7.c **** /*!
 214:../Generated_Code/BitIoLdd7.c **** **     @brief
 215:../Generated_Code/BitIoLdd7.c **** **         Clears (set to zero) the output value. It is equivalent to
 216:../Generated_Code/BitIoLdd7.c **** **         the [PutVal(FALSE)]. This method is available only if the
 217:../Generated_Code/BitIoLdd7.c **** **         direction = _[output]_ or _[input/output]_.
 218:../Generated_Code/BitIoLdd7.c **** **     @param
 219:../Generated_Code/BitIoLdd7.c **** **         DeviceDataPtr   - Pointer to device data
 220:../Generated_Code/BitIoLdd7.c **** **                           structure returned by <Init> method.
 221:../Generated_Code/BitIoLdd7.c **** */
 222:../Generated_Code/BitIoLdd7.c **** /* ===================================================================*/
 223:../Generated_Code/BitIoLdd7.c **** void BitIoLdd7_ClrVal(LDD_TDeviceData *DeviceDataPtr)
 224:../Generated_Code/BitIoLdd7.c **** {
 207              		.loc 1 224 0
 208              		.cfi_startproc
 209 0000 80B5     		push	{r7, lr}
 210              	.LCFI9:
 211              		.cfi_def_cfa_offset 8
 212              		.cfi_offset 7, -8
 213              		.cfi_offset 14, -4
 214 0002 82B0     		sub	sp, sp, #8
 215              	.LCFI10:
 216              		.cfi_def_cfa_offset 16
 217 0004 00AF     		add	r7, sp, #0
 218              	.LCFI11:
 219              		.cfi_def_cfa_register 7
 220 0006 7860     		str	r0, [r7, #4]
 225:../Generated_Code/BitIoLdd7.c ****   (void)DeviceDataPtr;                 /* Parameter is not used, suppress unused argument warning *
 226:../Generated_Code/BitIoLdd7.c ****   GPIO_PDD_ClearPortDataOutputMask(BitIoLdd7_MODULE_BASE_ADDRESS, BitIoLdd7_PORT_MASK);
 221              		.loc 1 226 0
 222 0008 024B     		ldr	r3, .L15
 223 000a 0422     		mov	r2, #4
 224 000c 9A60     		str	r2, [r3, #8]
 227:../Generated_Code/BitIoLdd7.c **** }
 225              		.loc 1 227 0
 226 000e BD46     		mov	sp, r7
 227 0010 02B0     		add	sp, sp, #8
 228              		@ sp needed for prologue
 229 0012 80BD     		pop	{r7, pc}
 230              	.L16:
 231              		.align	2
 232              	.L15:
 233 0014 80F00FF8 		.word	-133173120
 234              		.cfi_endproc
 235              	.LFE3:
 237              		.section	.text.BitIoLdd7_SetVal,"ax",%progbits
 238              		.align	2
 239              		.global	BitIoLdd7_SetVal
 240              		.code	16
 241              		.thumb_func
 243              	BitIoLdd7_SetVal:
 244              	.LFB4:
 228:../Generated_Code/BitIoLdd7.c **** 
 229:../Generated_Code/BitIoLdd7.c **** /*
 230:../Generated_Code/BitIoLdd7.c **** ** ===================================================================
 231:../Generated_Code/BitIoLdd7.c **** **     Method      :  BitIoLdd7_SetVal (component BitIO_LDD)
 232:../Generated_Code/BitIoLdd7.c **** */
 233:../Generated_Code/BitIoLdd7.c **** /*!
 234:../Generated_Code/BitIoLdd7.c **** **     @brief
 235:../Generated_Code/BitIoLdd7.c **** **         Sets (to one) the output value. It is equivalent to the
 236:../Generated_Code/BitIoLdd7.c **** **         [PutVal(TRUE)]. This method is available only if the
 237:../Generated_Code/BitIoLdd7.c **** **         direction = _[output]_ or _[input/output]_.
 238:../Generated_Code/BitIoLdd7.c **** **     @param
 239:../Generated_Code/BitIoLdd7.c **** **         DeviceDataPtr   - Pointer to device data
 240:../Generated_Code/BitIoLdd7.c **** **                           structure returned by <Init> method.
 241:../Generated_Code/BitIoLdd7.c **** */
 242:../Generated_Code/BitIoLdd7.c **** /* ===================================================================*/
 243:../Generated_Code/BitIoLdd7.c **** void BitIoLdd7_SetVal(LDD_TDeviceData *DeviceDataPtr)
 244:../Generated_Code/BitIoLdd7.c **** {
 245              		.loc 1 244 0
 246              		.cfi_startproc
 247 0000 80B5     		push	{r7, lr}
 248              	.LCFI12:
 249              		.cfi_def_cfa_offset 8
 250              		.cfi_offset 7, -8
 251              		.cfi_offset 14, -4
 252 0002 82B0     		sub	sp, sp, #8
 253              	.LCFI13:
 254              		.cfi_def_cfa_offset 16
 255 0004 00AF     		add	r7, sp, #0
 256              	.LCFI14:
 257              		.cfi_def_cfa_register 7
 258 0006 7860     		str	r0, [r7, #4]
 245:../Generated_Code/BitIoLdd7.c ****   (void)DeviceDataPtr;                 /* Parameter is not used, suppress unused argument warning *
 246:../Generated_Code/BitIoLdd7.c ****   GPIO_PDD_SetPortDataOutputMask(BitIoLdd7_MODULE_BASE_ADDRESS, BitIoLdd7_PORT_MASK);
 259              		.loc 1 246 0
 260 0008 024B     		ldr	r3, .L18
 261 000a 0422     		mov	r2, #4
 262 000c 5A60     		str	r2, [r3, #4]
 247:../Generated_Code/BitIoLdd7.c **** }
 263              		.loc 1 247 0
 264 000e BD46     		mov	sp, r7
 265 0010 02B0     		add	sp, sp, #8
 266              		@ sp needed for prologue
 267 0012 80BD     		pop	{r7, pc}
 268              	.L19:
 269              		.align	2
 270              	.L18:
 271 0014 80F00FF8 		.word	-133173120
 272              		.cfi_endproc
 273              	.LFE4:
 275              		.text
 276              	.Letext0:
 277              		.file 2 "D:/Freescale/CW MCU v10.7/MCU/ARM_GCC_Support/ewl/EWL_C/include/cstdint"
 278              		.file 3 "../Generated_Code/PE_Types.h"
 279              		.file 4 "D:/Freescale/CW MCU v10.7/MCU/ProcessorExpert/lib/Kinetis/iofiles/MKL25Z4.h"