   1              		.cpu cortex-m0
   2              		.fpu softvfp
   3              		.eabi_attribute 20, 1
   4              		.eabi_attribute 21, 1
   5              		.eabi_attribute 23, 3
   6              		.eabi_attribute 24, 1
   7              		.eabi_attribute 25, 1
   8              		.eabi_attribute 26, 1
   9              		.eabi_attribute 30, 6
  10              		.eabi_attribute 34, 0
  11              		.eabi_attribute 18, 4
  12              		.code	16
  13              		.file	"BitIoLdd4.c"
  14              		.text
  15              	.Ltext0:
  16              		.cfi_sections	.debug_frame
  17              		.section	.bss.DeviceDataPrv__DEFAULT_RTOS_ALLOC,"aw",%nobits
  18              		.align	2
  21              	DeviceDataPrv__DEFAULT_RTOS_ALLOC:
  22 0000 00000000 		.space	4
  23              		.section	.text.BitIoLdd4_Init,"ax",%progbits
  24              		.align	2
  25              		.global	BitIoLdd4_Init
  26              		.code	16
  27              		.thumb_func
  29              	BitIoLdd4_Init:
  30              	.LFB0:
  31              		.file 1 "../Generated_Code/BitIoLdd4.c"
   1:../Generated_Code/BitIoLdd4.c **** /* ###################################################################
   2:../Generated_Code/BitIoLdd4.c **** **     This component module is generated by Processor Expert. Do not modify it.
   3:../Generated_Code/BitIoLdd4.c **** **     Filename    : BitIoLdd4.c
   4:../Generated_Code/BitIoLdd4.c **** **     Project     : ProcessorExpert
   5:../Generated_Code/BitIoLdd4.c **** **     Processor   : MKL25Z128VLK4
   6:../Generated_Code/BitIoLdd4.c **** **     Component   : BitIO_LDD
   7:../Generated_Code/BitIoLdd4.c **** **     Version     : Component 01.033, Driver 01.03, CPU db: 3.00.000
   8:../Generated_Code/BitIoLdd4.c **** **     Compiler    : GNU C Compiler
   9:../Generated_Code/BitIoLdd4.c **** **     Date/Time   : 2019-04-10, 17:35, # CodeGen: 63
  10:../Generated_Code/BitIoLdd4.c **** **     Abstract    :
  11:../Generated_Code/BitIoLdd4.c **** **         The HAL BitIO component provides a low level API for unified
  12:../Generated_Code/BitIoLdd4.c **** **         access to general purpose digital input/output pins across
  13:../Generated_Code/BitIoLdd4.c **** **         various device designs.
  14:../Generated_Code/BitIoLdd4.c **** **
  15:../Generated_Code/BitIoLdd4.c **** **         RTOS drivers using HAL BitIO API are simpler and more
  16:../Generated_Code/BitIoLdd4.c **** **         portable to various microprocessors.
  17:../Generated_Code/BitIoLdd4.c **** **     Settings    :
  18:../Generated_Code/BitIoLdd4.c **** **          Component name                                 : BitIoLdd4
  19:../Generated_Code/BitIoLdd4.c **** **          Pin for I/O                                    : PTB9
  20:../Generated_Code/BitIoLdd4.c **** **          Pin signal                                     : 
  21:../Generated_Code/BitIoLdd4.c **** **          Direction                                      : Output
  22:../Generated_Code/BitIoLdd4.c **** **          Initialization                                 : 
  23:../Generated_Code/BitIoLdd4.c **** **            Init. direction                              : Output
  24:../Generated_Code/BitIoLdd4.c **** **            Init. value                                  : 0
  25:../Generated_Code/BitIoLdd4.c **** **            Auto initialization                          : yes
  26:../Generated_Code/BitIoLdd4.c **** **          Safe mode                                      : yes
  27:../Generated_Code/BitIoLdd4.c **** **     Contents    :
  28:../Generated_Code/BitIoLdd4.c **** **         Init   - LDD_TDeviceData* BitIoLdd4_Init(LDD_TUserData *UserDataPtr);
  29:../Generated_Code/BitIoLdd4.c **** **         GetVal - bool BitIoLdd4_GetVal(LDD_TDeviceData *DeviceDataPtr);
  30:../Generated_Code/BitIoLdd4.c **** **         PutVal - void BitIoLdd4_PutVal(LDD_TDeviceData *DeviceDataPtr, bool Val);
  31:../Generated_Code/BitIoLdd4.c **** **         ClrVal - void BitIoLdd4_ClrVal(LDD_TDeviceData *DeviceDataPtr);
  32:../Generated_Code/BitIoLdd4.c **** **         SetVal - void BitIoLdd4_SetVal(LDD_TDeviceData *DeviceDataPtr);
  33:../Generated_Code/BitIoLdd4.c **** **
  34:../Generated_Code/BitIoLdd4.c **** **     Copyright : 1997 - 2014 Freescale Semiconductor, Inc. 
  35:../Generated_Code/BitIoLdd4.c **** **     All Rights Reserved.
  36:../Generated_Code/BitIoLdd4.c **** **     
  37:../Generated_Code/BitIoLdd4.c **** **     Redistribution and use in source and binary forms, with or without modification,
  38:../Generated_Code/BitIoLdd4.c **** **     are permitted provided that the following conditions are met:
  39:../Generated_Code/BitIoLdd4.c **** **     
  40:../Generated_Code/BitIoLdd4.c **** **     o Redistributions of source code must retain the above copyright notice, this list
  41:../Generated_Code/BitIoLdd4.c **** **       of conditions and the following disclaimer.
  42:../Generated_Code/BitIoLdd4.c **** **     
  43:../Generated_Code/BitIoLdd4.c **** **     o Redistributions in binary form must reproduce the above copyright notice, this
  44:../Generated_Code/BitIoLdd4.c **** **       list of conditions and the following disclaimer in the documentation and/or
  45:../Generated_Code/BitIoLdd4.c **** **       other materials provided with the distribution.
  46:../Generated_Code/BitIoLdd4.c **** **     
  47:../Generated_Code/BitIoLdd4.c **** **     o Neither the name of Freescale Semiconductor, Inc. nor the names of its
  48:../Generated_Code/BitIoLdd4.c **** **       contributors may be used to endorse or promote products derived from this
  49:../Generated_Code/BitIoLdd4.c **** **       software without specific prior written permission.
  50:../Generated_Code/BitIoLdd4.c **** **     
  51:../Generated_Code/BitIoLdd4.c **** **     THIS SOFTWARE IS PROVIDED BY THE COPYRIGHT HOLDERS AND CONTRIBUTORS "AS IS" AND
  52:../Generated_Code/BitIoLdd4.c **** **     ANY EXPRESS OR IMPLIED WARRANTIES, INCLUDING, BUT NOT LIMITED TO, THE IMPLIED
  53:../Generated_Code/BitIoLdd4.c **** **     WARRANTIES OF MERCHANTABILITY AND FITNESS FOR A PARTICULAR PURPOSE ARE
  54:../Generated_Code/BitIoLdd4.c **** **     DISCLAIMED. IN NO EVENT SHALL THE COPYRIGHT HOLDER OR CONTRIBUTORS BE LIABLE FOR
  55:../Generated_Code/BitIoLdd4.c **** **     ANY DIRECT, INDIRECT, INCIDENTAL, SPECIAL, EXEMPLARY, OR CONSEQUENTIAL DAMAGES
  56:../Generated_Code/BitIoLdd4.c **** **     (INCLUDING, BUT NOT LIMITED TO, PROCUREMENT OF SUBSTITUTE GOODS OR SERVICES;
  57:../Generated_Code/BitIoLdd4.c **** **     LOSS OF USE, DATA, OR PROFITS; OR BUSINESS INTERRUPTION) HOWEVER CAUSED AND ON
  58:../Generated_Code/BitIoLdd4.c **** **     ANY THEORY OF LIABILITY, WHETHER IN CONTRACT, STRICT LIABILITY, OR TORT
  59:../Generated_Code/BitIoLdd4.c **** **     (INCLUDING NEGLIGENCE OR OTHERWISE) ARISING IN ANY WAY OUT OF THE USE OF THIS
  60:../Generated_Code/BitIoLdd4.c **** **     SOFTWARE, EVEN IF ADVISED OF THE POSSIBILITY OF SUCH DAMAGE.
  61:../Generated_Code/BitIoLdd4.c **** **     
  62:../Generated_Code/BitIoLdd4.c **** **     http: www.freescale.com
  63:../Generated_Code/BitIoLdd4.c **** **     mail: support@freescale.com
  64:../Generated_Code/BitIoLdd4.c **** ** ###################################################################*/
  65:../Generated_Code/BitIoLdd4.c **** /*!
  66:../Generated_Code/BitIoLdd4.c **** ** @file BitIoLdd4.c
  67:../Generated_Code/BitIoLdd4.c **** ** @version 01.03
  68:../Generated_Code/BitIoLdd4.c **** ** @brief
  69:../Generated_Code/BitIoLdd4.c **** **         The HAL BitIO component provides a low level API for unified
  70:../Generated_Code/BitIoLdd4.c **** **         access to general purpose digital input/output pins across
  71:../Generated_Code/BitIoLdd4.c **** **         various device designs.
  72:../Generated_Code/BitIoLdd4.c **** **
  73:../Generated_Code/BitIoLdd4.c **** **         RTOS drivers using HAL BitIO API are simpler and more
  74:../Generated_Code/BitIoLdd4.c **** **         portable to various microprocessors.
  75:../Generated_Code/BitIoLdd4.c **** */         
  76:../Generated_Code/BitIoLdd4.c **** /*!
  77:../Generated_Code/BitIoLdd4.c **** **  @addtogroup BitIoLdd4_module BitIoLdd4 module documentation
  78:../Generated_Code/BitIoLdd4.c **** **  @{
  79:../Generated_Code/BitIoLdd4.c **** */         
  80:../Generated_Code/BitIoLdd4.c **** 
  81:../Generated_Code/BitIoLdd4.c **** /* MODULE BitIoLdd4. */
  82:../Generated_Code/BitIoLdd4.c **** 
  83:../Generated_Code/BitIoLdd4.c **** /* {Default RTOS Adapter} No RTOS includes */
  84:../Generated_Code/BitIoLdd4.c **** #include "BitIoLdd4.h"
  85:../Generated_Code/BitIoLdd4.c **** 
  86:../Generated_Code/BitIoLdd4.c **** #ifdef __cplusplus
  87:../Generated_Code/BitIoLdd4.c **** extern "C" {
  88:../Generated_Code/BitIoLdd4.c **** #endif 
  89:../Generated_Code/BitIoLdd4.c **** 
  90:../Generated_Code/BitIoLdd4.c **** typedef struct {
  91:../Generated_Code/BitIoLdd4.c ****   LDD_TUserData *UserDataPtr;          /* Pointer to user data */
  92:../Generated_Code/BitIoLdd4.c **** } BitIoLdd4_TDeviceData;               /* Device data structure type */
  93:../Generated_Code/BitIoLdd4.c **** 
  94:../Generated_Code/BitIoLdd4.c **** typedef BitIoLdd4_TDeviceData *BitIoLdd4_TDeviceDataPtr ; /* Pointer to the device data structure. 
  95:../Generated_Code/BitIoLdd4.c **** 
  96:../Generated_Code/BitIoLdd4.c **** /* {Default RTOS Adapter} Static object used for simulation of dynamic driver memory allocation */
  97:../Generated_Code/BitIoLdd4.c **** static BitIoLdd4_TDeviceData DeviceDataPrv__DEFAULT_RTOS_ALLOC;
  98:../Generated_Code/BitIoLdd4.c **** /*
  99:../Generated_Code/BitIoLdd4.c **** ** ===================================================================
 100:../Generated_Code/BitIoLdd4.c **** **     Method      :  BitIoLdd4_Init (component BitIO_LDD)
 101:../Generated_Code/BitIoLdd4.c **** */
 102:../Generated_Code/BitIoLdd4.c **** /*!
 103:../Generated_Code/BitIoLdd4.c **** **     @brief
 104:../Generated_Code/BitIoLdd4.c **** **         Initializes the device. Allocates memory for the device data
 105:../Generated_Code/BitIoLdd4.c **** **         structure, allocates interrupt vectors and sets interrupt
 106:../Generated_Code/BitIoLdd4.c **** **         priority, sets pin routing, sets timing, etc. If the "Enable
 107:../Generated_Code/BitIoLdd4.c **** **         in init. code" is set to "yes" value then the device is also
 108:../Generated_Code/BitIoLdd4.c **** **         enabled(see the description of the Enable() method). In this
 109:../Generated_Code/BitIoLdd4.c **** **         case the Enable() method is not necessary and needn't to be
 110:../Generated_Code/BitIoLdd4.c **** **         generated. 
 111:../Generated_Code/BitIoLdd4.c **** **     @param
 112:../Generated_Code/BitIoLdd4.c **** **         UserDataPtr     - Pointer to the user or
 113:../Generated_Code/BitIoLdd4.c **** **                           RTOS specific data. This pointer will be
 114:../Generated_Code/BitIoLdd4.c **** **                           passed as an event or callback parameter.
 115:../Generated_Code/BitIoLdd4.c **** **     @return
 116:../Generated_Code/BitIoLdd4.c **** **                         - Pointer to the dynamically allocated private
 117:../Generated_Code/BitIoLdd4.c **** **                           structure or NULL if there was an error.
 118:../Generated_Code/BitIoLdd4.c **** */
 119:../Generated_Code/BitIoLdd4.c **** /* ===================================================================*/
 120:../Generated_Code/BitIoLdd4.c **** LDD_TDeviceData* BitIoLdd4_Init(LDD_TUserData *UserDataPtr)
 121:../Generated_Code/BitIoLdd4.c **** {
  32              		.loc 1 121 0
  33              		.cfi_startproc
  34 0000 80B5     		push	{r7, lr}
  35              	.LCFI0:
  36              		.cfi_def_cfa_offset 8
  37              		.cfi_offset 7, -8
  38              		.cfi_offset 14, -4
  39 0002 84B0     		sub	sp, sp, #16
  40              	.LCFI1:
  41              		.cfi_def_cfa_offset 24
  42 0004 00AF     		add	r7, sp, #0
  43              	.LCFI2:
  44              		.cfi_def_cfa_register 7
  45 0006 7860     		str	r0, [r7, #4]
 122:../Generated_Code/BitIoLdd4.c ****   /* Allocate device structure */
 123:../Generated_Code/BitIoLdd4.c ****   BitIoLdd4_TDeviceDataPtr DeviceDataPrv;
 124:../Generated_Code/BitIoLdd4.c **** 
 125:../Generated_Code/BitIoLdd4.c ****   /* {Default RTOS Adapter} Driver memory allocation: Dynamic allocation is simulated by a pointer 
 126:../Generated_Code/BitIoLdd4.c ****   DeviceDataPrv = &DeviceDataPrv__DEFAULT_RTOS_ALLOC;
  46              		.loc 1 126 0
  47 0008 114B     		ldr	r3, .L3
  48 000a FB60     		str	r3, [r7, #12]
 127:../Generated_Code/BitIoLdd4.c ****   DeviceDataPrv->UserDataPtr = UserDataPtr; /* Store the RTOS device structure */
  49              		.loc 1 127 0
  50 000c FB68     		ldr	r3, [r7, #12]
  51 000e 7A68     		ldr	r2, [r7, #4]
  52 0010 1A60     		str	r2, [r3]
 128:../Generated_Code/BitIoLdd4.c ****   /* Configure pin as output */
 129:../Generated_Code/BitIoLdd4.c ****   /* GPIOB_PDDR: PDD|=0x0200 */
 130:../Generated_Code/BitIoLdd4.c ****   GPIOB_PDDR |= GPIO_PDDR_PDD(0x0200);
  53              		.loc 1 130 0
  54 0012 104B     		ldr	r3, .L3+4
  55 0014 0F4A     		ldr	r2, .L3+4
  56 0016 5269     		ldr	r2, [r2, #20]
  57 0018 8021     		mov	r1, #128
  58 001a 8900     		lsl	r1, r1, #2
  59 001c 0A43     		orr	r2, r1
  60 001e 5A61     		str	r2, [r3, #20]
 131:../Generated_Code/BitIoLdd4.c ****   /* Set initialization value */
 132:../Generated_Code/BitIoLdd4.c ****   /* GPIOB_PDOR: PDO&=~0x0200 */
 133:../Generated_Code/BitIoLdd4.c ****   GPIOB_PDOR &= (uint32_t)~(uint32_t)(GPIO_PDOR_PDO(0x0200));
  61              		.loc 1 133 0
  62 0020 0C4B     		ldr	r3, .L3+4
  63 0022 0C4A     		ldr	r2, .L3+4
  64 0024 1168     		ldr	r1, [r2]
  65 0026 0C4A     		ldr	r2, .L3+8
  66 0028 0A40     		and	r2, r1
  67 002a 1A60     		str	r2, [r3]
 134:../Generated_Code/BitIoLdd4.c ****   /* Initialization of Port Control register */
 135:../Generated_Code/BitIoLdd4.c ****   /* PORTB_PCR9: ISF=0,MUX=1 */
 136:../Generated_Code/BitIoLdd4.c ****   PORTB_PCR9 = (uint32_t)((PORTB_PCR9 & (uint32_t)~(uint32_t)(
  68              		.loc 1 136 0
  69 002c 0B4B     		ldr	r3, .L3+12
  70 002e 0B4A     		ldr	r2, .L3+12
  71 0030 516A     		ldr	r1, [r2, #36]
  72 0032 0B4A     		ldr	r2, .L3+16
  73 0034 0A40     		and	r2, r1
  74 0036 8021     		mov	r1, #128
  75 0038 4900     		lsl	r1, r1, #1
  76 003a 0A43     		orr	r2, r1
  77 003c 5A62     		str	r2, [r3, #36]
 137:../Generated_Code/BitIoLdd4.c ****                 PORT_PCR_ISF_MASK |
 138:../Generated_Code/BitIoLdd4.c ****                 PORT_PCR_MUX(0x06)
 139:../Generated_Code/BitIoLdd4.c ****                )) | (uint32_t)(
 140:../Generated_Code/BitIoLdd4.c ****                 PORT_PCR_MUX(0x01)
 141:../Generated_Code/BitIoLdd4.c ****                ));
 142:../Generated_Code/BitIoLdd4.c ****   /* Registration of the device structure */
 143:../Generated_Code/BitIoLdd4.c ****   PE_LDD_RegisterDeviceStructure(PE_LDD_COMPONENT_BitIoLdd4_ID,DeviceDataPrv);
  78              		.loc 1 143 0
  79 003e 094B     		ldr	r3, .L3+20
  80 0040 FA68     		ldr	r2, [r7, #12]
  81 0042 5A61     		str	r2, [r3, #20]
 144:../Generated_Code/BitIoLdd4.c ****   return ((LDD_TDeviceData *)DeviceDataPrv);
  82              		.loc 1 144 0
  83 0044 FB68     		ldr	r3, [r7, #12]
 145:../Generated_Code/BitIoLdd4.c **** }
  84              		.loc 1 145 0
  85 0046 181C     		mov	r0, r3
  86 0048 BD46     		mov	sp, r7
  87 004a 04B0     		add	sp, sp, #16
  88              		@ sp needed for prologue
  89 004c 80BD     		pop	{r7, pc}
  90              	.L4:
  91 004e C046     		.align	2
  92              	.L3:
  93 0050 00000000 		.word	DeviceDataPrv__DEFAULT_RTOS_ALLOC
  94 0054 40F00F40 		.word	1074786368
  95 0058 FFFDFFFF 		.word	-513
  96 005c 00A00440 		.word	1074044928
  97 0060 FFF8FFFE 		.word	-16779009
  98 0064 00000000 		.word	PE_LDD_DeviceDataList
  99              		.cfi_endproc
 100              	.LFE0:
 102              		.section	.text.BitIoLdd4_GetVal,"ax",%progbits
 103              		.align	2
 104              		.global	BitIoLdd4_GetVal
 105              		.code	16
 106              		.thumb_func
 108              	BitIoLdd4_GetVal:
 109              	.LFB1:
 146:../Generated_Code/BitIoLdd4.c **** /*
 147:../Generated_Code/BitIoLdd4.c **** ** ===================================================================
 148:../Generated_Code/BitIoLdd4.c **** **     Method      :  BitIoLdd4_GetVal (component BitIO_LDD)
 149:../Generated_Code/BitIoLdd4.c **** */
 150:../Generated_Code/BitIoLdd4.c **** /*!
 151:../Generated_Code/BitIoLdd4.c **** **     @brief
 152:../Generated_Code/BitIoLdd4.c **** **         Returns the input/output value. If the direction is [input]
 153:../Generated_Code/BitIoLdd4.c **** **         then the input value of the pin is read and returned. If the
 154:../Generated_Code/BitIoLdd4.c **** **         direction is [output] then the last written value is read
 155:../Generated_Code/BitIoLdd4.c **** **         and returned (see <Safe mode> property for limitations).
 156:../Generated_Code/BitIoLdd4.c **** **         This method cannot be disabled if direction is [input].
 157:../Generated_Code/BitIoLdd4.c **** **     @param
 158:../Generated_Code/BitIoLdd4.c **** **         DeviceDataPtr   - Device data structure
 159:../Generated_Code/BitIoLdd4.c **** **                           pointer returned by <Init> method.
 160:../Generated_Code/BitIoLdd4.c **** **     @return
 161:../Generated_Code/BitIoLdd4.c **** **                         - Input or output value. Possible values:
 162:../Generated_Code/BitIoLdd4.c **** **                           <false> - logical "0" (Low level)
 163:../Generated_Code/BitIoLdd4.c **** **                           <true> - logical "1" (High level)
 164:../Generated_Code/BitIoLdd4.c **** */
 165:../Generated_Code/BitIoLdd4.c **** /* ===================================================================*/
 166:../Generated_Code/BitIoLdd4.c **** bool BitIoLdd4_GetVal(LDD_TDeviceData *DeviceDataPtr)
 167:../Generated_Code/BitIoLdd4.c **** {
 110              		.loc 1 167 0
 111              		.cfi_startproc
 112 0000 80B5     		push	{r7, lr}
 113              	.LCFI3:
 114              		.cfi_def_cfa_offset 8
 115              		.cfi_offset 7, -8
 116              		.cfi_offset 14, -4
 117 0002 84B0     		sub	sp, sp, #16
 118              	.LCFI4:
 119              		.cfi_def_cfa_offset 24
 120 0004 00AF     		add	r7, sp, #0
 121              	.LCFI5:
 122              		.cfi_def_cfa_register 7
 123 0006 7860     		str	r0, [r7, #4]
 168:../Generated_Code/BitIoLdd4.c ****   uint32_t PortData;                   /* Port data masked according to the bit used */
 169:../Generated_Code/BitIoLdd4.c **** 
 170:../Generated_Code/BitIoLdd4.c ****   (void)DeviceDataPtr;                 /* Parameter is not used, suppress unused argument warning *
 171:../Generated_Code/BitIoLdd4.c ****   PortData = GPIO_PDD_GetPortDataOutput(BitIoLdd4_MODULE_BASE_ADDRESS) & BitIoLdd4_PORT_MASK;
 124              		.loc 1 171 0
 125 0008 064B     		ldr	r3, .L7
 126 000a 1A68     		ldr	r2, [r3]
 127 000c 8023     		mov	r3, #128
 128 000e 9B00     		lsl	r3, r3, #2
 129 0010 1340     		and	r3, r2
 130 0012 FB60     		str	r3, [r7, #12]
 172:../Generated_Code/BitIoLdd4.c ****   return (PortData != 0U) ? (bool)TRUE : (bool)FALSE;
 131              		.loc 1 172 0
 132 0014 FB68     		ldr	r3, [r7, #12]
 133 0016 5A1E     		sub	r2, r3, #1
 134 0018 9341     		sbc	r3, r3, r2
 135 001a DBB2     		uxtb	r3, r3
 173:../Generated_Code/BitIoLdd4.c **** }
 136              		.loc 1 173 0
 137 001c 181C     		mov	r0, r3
 138 001e BD46     		mov	sp, r7
 139 0020 04B0     		add	sp, sp, #16
 140              		@ sp needed for prologue
 141 0022 80BD     		pop	{r7, pc}
 142              	.L8:
 143              		.align	2
 144              	.L7:
 145 0024 40F00FF8 		.word	-133173184
 146              		.cfi_endproc
 147              	.LFE1:
 149              		.section	.text.BitIoLdd4_PutVal,"ax",%progbits
 150              		.align	2
 151              		.global	BitIoLdd4_PutVal
 152              		.code	16
 153              		.thumb_func
 155              	BitIoLdd4_PutVal:
 156              	.LFB2:
 174:../Generated_Code/BitIoLdd4.c **** 
 175:../Generated_Code/BitIoLdd4.c **** /*
 176:../Generated_Code/BitIoLdd4.c **** ** ===================================================================
 177:../Generated_Code/BitIoLdd4.c **** **     Method      :  BitIoLdd4_PutVal (component BitIO_LDD)
 178:../Generated_Code/BitIoLdd4.c **** */
 179:../Generated_Code/BitIoLdd4.c **** /*!
 180:../Generated_Code/BitIoLdd4.c **** **     @brief
 181:../Generated_Code/BitIoLdd4.c **** **         The specified output value is set. If the direction is <b>
 182:../Generated_Code/BitIoLdd4.c **** **         input</b>, the component saves the value to a memory or a
 183:../Generated_Code/BitIoLdd4.c **** **         register and this value will be written to the pin after
 184:../Generated_Code/BitIoLdd4.c **** **         switching to the output mode (using <tt>SetDir(TRUE)</tt>;
 185:../Generated_Code/BitIoLdd4.c **** **         see <a href="BitIOProperties.html#SafeMode">Safe mode</a>
 186:../Generated_Code/BitIoLdd4.c **** **         property for limitations). If the direction is <b>output</b>,
 187:../Generated_Code/BitIoLdd4.c **** **         it writes the value to the pin. (Method is available only if
 188:../Generated_Code/BitIoLdd4.c **** **         the direction = <u><tt>output</tt></u> or <u><tt>
 189:../Generated_Code/BitIoLdd4.c **** **         input/output</tt></u>).
 190:../Generated_Code/BitIoLdd4.c **** **     @param
 191:../Generated_Code/BitIoLdd4.c **** **         DeviceDataPtr   - Device data structure
 192:../Generated_Code/BitIoLdd4.c **** **                           pointer returned by <Init> method.
 193:../Generated_Code/BitIoLdd4.c **** **     @param
 194:../Generated_Code/BitIoLdd4.c **** **         Val             - Output value. Possible values:
 195:../Generated_Code/BitIoLdd4.c **** **                           <false> - logical "0" (Low level)
 196:../Generated_Code/BitIoLdd4.c **** **                           <true> - logical "1" (High level)
 197:../Generated_Code/BitIoLdd4.c **** */
 198:../Generated_Code/BitIoLdd4.c **** /* ===================================================================*/
 199:../Generated_Code/BitIoLdd4.c **** void BitIoLdd4_PutVal(LDD_TDeviceData *DeviceDataPtr, bool Val)
 200:../Generated_Code/BitIoLdd4.c **** {
 157              		.loc 1 200 0
 158              		.cfi_startproc
 159 0000 80B5     		push	{r7, lr}
 160              	.LCFI6:
 161              		.cfi_def_cfa_offset 8
 162              		.cfi_offset 7, -8
 163              		.cfi_offset 14, -4
 164 0002 82B0     		sub	sp, sp, #8
 165              	.LCFI7:
 166              		.cfi_def_cfa_offset 16
 167 0004 00AF     		add	r7, sp, #0
 168              	.LCFI8:
 169              		.cfi_def_cfa_register 7
 170 0006 7860     		str	r0, [r7, #4]
 171 0008 0A1C     		mov	r2, r1
 172 000a FB1C     		add	r3, r7, #3
 173 000c 1A70     		strb	r2, [r3]
 201:../Generated_Code/BitIoLdd4.c ****   (void)DeviceDataPtr;                 /* Parameter is not used, suppress unused argument warning *
 202:../Generated_Code/BitIoLdd4.c ****   if (Val) {
 174              		.loc 1 202 0
 175 000e FB1C     		add	r3, r7, #3
 176 0010 1B78     		ldrb	r3, [r3]
 177 0012 002B     		cmp	r3, #0
 178 0014 04D0     		beq	.L10
 203:../Generated_Code/BitIoLdd4.c ****     GPIO_PDD_SetPortDataOutputMask(BitIoLdd4_MODULE_BASE_ADDRESS, BitIoLdd4_PORT_MASK);
 179              		.loc 1 203 0
 180 0016 064B     		ldr	r3, .L12
 181 0018 8022     		mov	r2, #128
 182 001a 9200     		lsl	r2, r2, #2
 183 001c 5A60     		str	r2, [r3, #4]
 184 001e 03E0     		b	.L9
 185              	.L10:
 204:../Generated_Code/BitIoLdd4.c ****   } else { /* !Val */
 205:../Generated_Code/BitIoLdd4.c ****     GPIO_PDD_ClearPortDataOutputMask(BitIoLdd4_MODULE_BASE_ADDRESS, BitIoLdd4_PORT_MASK);
 186              		.loc 1 205 0
 187 0020 034B     		ldr	r3, .L12
 188 0022 8022     		mov	r2, #128
 189 0024 9200     		lsl	r2, r2, #2
 190 0026 9A60     		str	r2, [r3, #8]
 191              	.L9:
 206:../Generated_Code/BitIoLdd4.c ****   } /* !Val */
 207:../Generated_Code/BitIoLdd4.c **** }
 192              		.loc 1 207 0
 193 0028 BD46     		mov	sp, r7
 194 002a 02B0     		add	sp, sp, #8
 195              		@ sp needed for prologue
 196 002c 80BD     		pop	{r7, pc}
 197              	.L13:
 198 002e C046     		.align	2
 199              	.L12:
 200 0030 40F00FF8 		.word	-133173184
 201              		.cfi_endproc
 202              	.LFE2:
 204              		.section	.text.BitIoLdd4_ClrVal,"ax",%progbits
 205              		.align	2
 206              		.global	BitIoLdd4_ClrVal
 207              		.code	16
 208              		.thumb_func
 210              	BitIoLdd4_ClrVal:
 211              	.LFB3:
 208:../Generated_Code/BitIoLdd4.c **** 
 209:../Generated_Code/BitIoLdd4.c **** /*
 210:../Generated_Code/BitIoLdd4.c **** ** ===================================================================
 211:../Generated_Code/BitIoLdd4.c **** **     Method      :  BitIoLdd4_ClrVal (component BitIO_LDD)
 212:../Generated_Code/BitIoLdd4.c **** */
 213:../Generated_Code/BitIoLdd4.c **** /*!
 214:../Generated_Code/BitIoLdd4.c **** **     @brief
 215:../Generated_Code/BitIoLdd4.c **** **         Clears (set to zero) the output value. It is equivalent to
 216:../Generated_Code/BitIoLdd4.c **** **         the [PutVal(FALSE)]. This method is available only if the
 217:../Generated_Code/BitIoLdd4.c **** **         direction = _[output]_ or _[input/output]_.
 218:../Generated_Code/BitIoLdd4.c **** **     @param
 219:../Generated_Code/BitIoLdd4.c **** **         DeviceDataPtr   - Pointer to device data
 220:../Generated_Code/BitIoLdd4.c **** **                           structure returned by <Init> method.
 221:../Generated_Code/BitIoLdd4.c **** */
 222:../Generated_Code/BitIoLdd4.c **** /* ===================================================================*/
 223:../Generated_Code/BitIoLdd4.c **** void BitIoLdd4_ClrVal(LDD_TDeviceData *DeviceDataPtr)
 224:../Generated_Code/BitIoLdd4.c **** {
 212              		.loc 1 224 0
 213              		.cfi_startproc
 214 0000 80B5     		push	{r7, lr}
 215              	.LCFI9:
 216              		.cfi_def_cfa_offset 8
 217              		.cfi_offset 7, -8
 218              		.cfi_offset 14, -4
 219 0002 82B0     		sub	sp, sp, #8
 220              	.LCFI10:
 221              		.cfi_def_cfa_offset 16
 222 0004 00AF     		add	r7, sp, #0
 223              	.LCFI11:
 224              		.cfi_def_cfa_register 7
 225 0006 7860     		str	r0, [r7, #4]
 225:../Generated_Code/BitIoLdd4.c ****   (void)DeviceDataPtr;                 /* Parameter is not used, suppress unused argument warning *
 226:../Generated_Code/BitIoLdd4.c ****   GPIO_PDD_ClearPortDataOutputMask(BitIoLdd4_MODULE_BASE_ADDRESS, BitIoLdd4_PORT_MASK);
 226              		.loc 1 226 0
 227 0008 034B     		ldr	r3, .L15
 228 000a 8022     		mov	r2, #128
 229 000c 9200     		lsl	r2, r2, #2
 230 000e 9A60     		str	r2, [r3, #8]
 227:../Generated_Code/BitIoLdd4.c **** }
 231              		.loc 1 227 0
 232 0010 BD46     		mov	sp, r7
 233 0012 02B0     		add	sp, sp, #8
 234              		@ sp needed for prologue
 235 0014 80BD     		pop	{r7, pc}
 236              	.L16:
 237 0016 C046     		.align	2
 238              	.L15:
 239 0018 40F00FF8 		.word	-133173184
 240              		.cfi_endproc
 241              	.LFE3:
 243              		.section	.text.BitIoLdd4_SetVal,"ax",%progbits
 244              		.align	2
 245              		.global	BitIoLdd4_SetVal
 246              		.code	16
 247              		.thumb_func
 249              	BitIoLdd4_SetVal:
 250              	.LFB4:
 228:../Generated_Code/BitIoLdd4.c **** 
 229:../Generated_Code/BitIoLdd4.c **** /*
 230:../Generated_Code/BitIoLdd4.c **** ** ===================================================================
 231:../Generated_Code/BitIoLdd4.c **** **     Method      :  BitIoLdd4_SetVal (component BitIO_LDD)
 232:../Generated_Code/BitIoLdd4.c **** */
 233:../Generated_Code/BitIoLdd4.c **** /*!
 234:../Generated_Code/BitIoLdd4.c **** **     @brief
 235:../Generated_Code/BitIoLdd4.c **** **         Sets (to one) the output value. It is equivalent to the
 236:../Generated_Code/BitIoLdd4.c **** **         [PutVal(TRUE)]. This method is available only if the
 237:../Generated_Code/BitIoLdd4.c **** **         direction = _[output]_ or _[input/output]_.
 238:../Generated_Code/BitIoLdd4.c **** **     @param
 239:../Generated_Code/BitIoLdd4.c **** **         DeviceDataPtr   - Pointer to device data
 240:../Generated_Code/BitIoLdd4.c **** **                           structure returned by <Init> method.
 241:../Generated_Code/BitIoLdd4.c **** */
 242:../Generated_Code/BitIoLdd4.c **** /* ===================================================================*/
 243:../Generated_Code/BitIoLdd4.c **** void BitIoLdd4_SetVal(LDD_TDeviceData *DeviceDataPtr)
 244:../Generated_Code/BitIoLdd4.c **** {
 251              		.loc 1 244 0
 252              		.cfi_startproc
 253 0000 80B5     		push	{r7, lr}
 254              	.LCFI12:
 255              		.cfi_def_cfa_offset 8
 256              		.cfi_offset 7, -8
 257              		.cfi_offset 14, -4
 258 0002 82B0     		sub	sp, sp, #8
 259              	.LCFI13:
 260              		.cfi_def_cfa_offset 16
 261 0004 00AF     		add	r7, sp, #0
 262              	.LCFI14:
 263              		.cfi_def_cfa_register 7
 264 0006 7860     		str	r0, [r7, #4]
 245:../Generated_Code/BitIoLdd4.c ****   (void)DeviceDataPtr;                 /* Parameter is not used, suppress unused argument warning *
 246:../Generated_Code/BitIoLdd4.c ****   GPIO_PDD_SetPortDataOutputMask(BitIoLdd4_MODULE_BASE_ADDRESS, BitIoLdd4_PORT_MASK);
 265              		.loc 1 246 0
 266 0008 034B     		ldr	r3, .L18
 267 000a 8022     		mov	r2, #128
 268 000c 9200     		lsl	r2, r2, #2
 269 000e 5A60     		str	r2, [r3, #4]
 247:../Generated_Code/BitIoLdd4.c **** }
 270              		.loc 1 247 0
 271 0010 BD46     		mov	sp, r7
 272 0012 02B0     		add	sp, sp, #8
 273              		@ sp needed for prologue
 274 0014 80BD     		pop	{r7, pc}
 275              	.L19:
 276 0016 C046     		.align	2
 277              	.L18:
 278 0018 40F00FF8 		.word	-133173184
 279              		.cfi_endproc
 280              	.LFE4:
 282              		.text
 283              	.Letext0:
 284              		.file 2 "D:/Freescale/CW MCU v10.7/MCU/ARM_GCC_Support/ewl/EWL_C/include/cstdint"
 285              		.file 3 "../Generated_Code/PE_Types.h"
 286              		.file 4 "D:/Freescale/CW MCU v10.7/MCU/ProcessorExpert/lib/Kinetis/iofiles/MKL25Z4.h"