   1              		.cpu cortex-m0
   2              		.fpu softvfp
   3              		.eabi_attribute 20, 1
   4              		.eabi_attribute 21, 1
   5              		.eabi_attribute 23, 3
   6              		.eabi_attribute 24, 1
   7              		.eabi_attribute 25, 1
   8              		.eabi_attribute 26, 1
   9              		.eabi_attribute 30, 6
  10              		.eabi_attribute 34, 0
  11              		.eabi_attribute 18, 4
  12              		.code	16
  13              		.file	"BitIoLdd6.c"
  14              		.text
  15              	.Ltext0:
  16              		.cfi_sections	.debug_frame
  17              		.section	.bss.DeviceDataPrv__DEFAULT_RTOS_ALLOC,"aw",%nobits
  18              		.align	2
  21              	DeviceDataPrv__DEFAULT_RTOS_ALLOC:
  22 0000 00000000 		.space	4
  23              		.section	.text.BitIoLdd6_Init,"ax",%progbits
  24              		.align	2
  25              		.global	BitIoLdd6_Init
  26              		.code	16
  27              		.thumb_func
  29              	BitIoLdd6_Init:
  30              	.LFB0:
  31              		.file 1 "../Generated_Code/BitIoLdd6.c"
   1:../Generated_Code/BitIoLdd6.c **** /* ###################################################################
   2:../Generated_Code/BitIoLdd6.c **** **     This component module is generated by Processor Expert. Do not modify it.
   3:../Generated_Code/BitIoLdd6.c **** **     Filename    : BitIoLdd6.c
   4:../Generated_Code/BitIoLdd6.c **** **     Project     : ProcessorExpert
   5:../Generated_Code/BitIoLdd6.c **** **     Processor   : MKL25Z128VLK4
   6:../Generated_Code/BitIoLdd6.c **** **     Component   : BitIO_LDD
   7:../Generated_Code/BitIoLdd6.c **** **     Version     : Component 01.033, Driver 01.03, CPU db: 3.00.000
   8:../Generated_Code/BitIoLdd6.c **** **     Compiler    : GNU C Compiler
   9:../Generated_Code/BitIoLdd6.c **** **     Date/Time   : 2019-04-10, 17:41, # CodeGen: 64
  10:../Generated_Code/BitIoLdd6.c **** **     Abstract    :
  11:../Generated_Code/BitIoLdd6.c **** **         The HAL BitIO component provides a low level API for unified
  12:../Generated_Code/BitIoLdd6.c **** **         access to general purpose digital input/output pins across
  13:../Generated_Code/BitIoLdd6.c **** **         various device designs.
  14:../Generated_Code/BitIoLdd6.c **** **
  15:../Generated_Code/BitIoLdd6.c **** **         RTOS drivers using HAL BitIO API are simpler and more
  16:../Generated_Code/BitIoLdd6.c **** **         portable to various microprocessors.
  17:../Generated_Code/BitIoLdd6.c **** **     Settings    :
  18:../Generated_Code/BitIoLdd6.c **** **          Component name                                 : BitIoLdd6
  19:../Generated_Code/BitIoLdd6.c **** **          Pin for I/O                                    : PTC17
  20:../Generated_Code/BitIoLdd6.c **** **          Pin signal                                     : 
  21:../Generated_Code/BitIoLdd6.c **** **          Direction                                      : Input/Output
  22:../Generated_Code/BitIoLdd6.c **** **          Initialization                                 : 
  23:../Generated_Code/BitIoLdd6.c **** **            Init. direction                              : Input
  24:../Generated_Code/BitIoLdd6.c **** **            Init. value                                  : 0
  25:../Generated_Code/BitIoLdd6.c **** **            Auto initialization                          : yes
  26:../Generated_Code/BitIoLdd6.c **** **          Safe mode                                      : yes
  27:../Generated_Code/BitIoLdd6.c **** **     Contents    :
  28:../Generated_Code/BitIoLdd6.c **** **         Init   - LDD_TDeviceData* BitIoLdd6_Init(LDD_TUserData *UserDataPtr);
  29:../Generated_Code/BitIoLdd6.c **** **         SetDir - void BitIoLdd6_SetDir(LDD_TDeviceData *DeviceDataPtr, bool Dir);
  30:../Generated_Code/BitIoLdd6.c **** **         GetVal - bool BitIoLdd6_GetVal(LDD_TDeviceData *DeviceDataPtr);
  31:../Generated_Code/BitIoLdd6.c **** **         PutVal - void BitIoLdd6_PutVal(LDD_TDeviceData *DeviceDataPtr, bool Val);
  32:../Generated_Code/BitIoLdd6.c **** **         ClrVal - void BitIoLdd6_ClrVal(LDD_TDeviceData *DeviceDataPtr);
  33:../Generated_Code/BitIoLdd6.c **** **         SetVal - void BitIoLdd6_SetVal(LDD_TDeviceData *DeviceDataPtr);
  34:../Generated_Code/BitIoLdd6.c **** **
  35:../Generated_Code/BitIoLdd6.c **** **     Copyright : 1997 - 2014 Freescale Semiconductor, Inc. 
  36:../Generated_Code/BitIoLdd6.c **** **     All Rights Reserved.
  37:../Generated_Code/BitIoLdd6.c **** **     
  38:../Generated_Code/BitIoLdd6.c **** **     Redistribution and use in source and binary forms, with or without modification,
  39:../Generated_Code/BitIoLdd6.c **** **     are permitted provided that the following conditions are met:
  40:../Generated_Code/BitIoLdd6.c **** **     
  41:../Generated_Code/BitIoLdd6.c **** **     o Redistributions of source code must retain the above copyright notice, this list
  42:../Generated_Code/BitIoLdd6.c **** **       of conditions and the following disclaimer.
  43:../Generated_Code/BitIoLdd6.c **** **     
  44:../Generated_Code/BitIoLdd6.c **** **     o Redistributions in binary form must reproduce the above copyright notice, this
  45:../Generated_Code/BitIoLdd6.c **** **       list of conditions and the following disclaimer in the documentation and/or
  46:../Generated_Code/BitIoLdd6.c **** **       other materials provided with the distribution.
  47:../Generated_Code/BitIoLdd6.c **** **     
  48:../Generated_Code/BitIoLdd6.c **** **     o Neither the name of Freescale Semiconductor, Inc. nor the names of its
  49:../Generated_Code/BitIoLdd6.c **** **       contributors may be used to endorse or promote products derived from this
  50:../Generated_Code/BitIoLdd6.c **** **       software without specific prior written permission.
  51:../Generated_Code/BitIoLdd6.c **** **     
  52:../Generated_Code/BitIoLdd6.c **** **     THIS SOFTWARE IS PROVIDED BY THE COPYRIGHT HOLDERS AND CONTRIBUTORS "AS IS" AND
  53:../Generated_Code/BitIoLdd6.c **** **     ANY EXPRESS OR IMPLIED WARRANTIES, INCLUDING, BUT NOT LIMITED TO, THE IMPLIED
  54:../Generated_Code/BitIoLdd6.c **** **     WARRANTIES OF MERCHANTABILITY AND FITNESS FOR A PARTICULAR PURPOSE ARE
  55:../Generated_Code/BitIoLdd6.c **** **     DISCLAIMED. IN NO EVENT SHALL THE COPYRIGHT HOLDER OR CONTRIBUTORS BE LIABLE FOR
  56:../Generated_Code/BitIoLdd6.c **** **     ANY DIRECT, INDIRECT, INCIDENTAL, SPECIAL, EXEMPLARY, OR CONSEQUENTIAL DAMAGES
  57:../Generated_Code/BitIoLdd6.c **** **     (INCLUDING, BUT NOT LIMITED TO, PROCUREMENT OF SUBSTITUTE GOODS OR SERVICES;
  58:../Generated_Code/BitIoLdd6.c **** **     LOSS OF USE, DATA, OR PROFITS; OR BUSINESS INTERRUPTION) HOWEVER CAUSED AND ON
  59:../Generated_Code/BitIoLdd6.c **** **     ANY THEORY OF LIABILITY, WHETHER IN CONTRACT, STRICT LIABILITY, OR TORT
  60:../Generated_Code/BitIoLdd6.c **** **     (INCLUDING NEGLIGENCE OR OTHERWISE) ARISING IN ANY WAY OUT OF THE USE OF THIS
  61:../Generated_Code/BitIoLdd6.c **** **     SOFTWARE, EVEN IF ADVISED OF THE POSSIBILITY OF SUCH DAMAGE.
  62:../Generated_Code/BitIoLdd6.c **** **     
  63:../Generated_Code/BitIoLdd6.c **** **     http: www.freescale.com
  64:../Generated_Code/BitIoLdd6.c **** **     mail: support@freescale.com
  65:../Generated_Code/BitIoLdd6.c **** ** ###################################################################*/
  66:../Generated_Code/BitIoLdd6.c **** /*!
  67:../Generated_Code/BitIoLdd6.c **** ** @file BitIoLdd6.c
  68:../Generated_Code/BitIoLdd6.c **** ** @version 01.03
  69:../Generated_Code/BitIoLdd6.c **** ** @brief
  70:../Generated_Code/BitIoLdd6.c **** **         The HAL BitIO component provides a low level API for unified
  71:../Generated_Code/BitIoLdd6.c **** **         access to general purpose digital input/output pins across
  72:../Generated_Code/BitIoLdd6.c **** **         various device designs.
  73:../Generated_Code/BitIoLdd6.c **** **
  74:../Generated_Code/BitIoLdd6.c **** **         RTOS drivers using HAL BitIO API are simpler and more
  75:../Generated_Code/BitIoLdd6.c **** **         portable to various microprocessors.
  76:../Generated_Code/BitIoLdd6.c **** */         
  77:../Generated_Code/BitIoLdd6.c **** /*!
  78:../Generated_Code/BitIoLdd6.c **** **  @addtogroup BitIoLdd6_module BitIoLdd6 module documentation
  79:../Generated_Code/BitIoLdd6.c **** **  @{
  80:../Generated_Code/BitIoLdd6.c **** */         
  81:../Generated_Code/BitIoLdd6.c **** 
  82:../Generated_Code/BitIoLdd6.c **** /* MODULE BitIoLdd6. */
  83:../Generated_Code/BitIoLdd6.c **** 
  84:../Generated_Code/BitIoLdd6.c **** /* {Default RTOS Adapter} No RTOS includes */
  85:../Generated_Code/BitIoLdd6.c **** #include "BitIoLdd6.h"
  86:../Generated_Code/BitIoLdd6.c **** 
  87:../Generated_Code/BitIoLdd6.c **** #ifdef __cplusplus
  88:../Generated_Code/BitIoLdd6.c **** extern "C" {
  89:../Generated_Code/BitIoLdd6.c **** #endif 
  90:../Generated_Code/BitIoLdd6.c **** 
  91:../Generated_Code/BitIoLdd6.c **** typedef struct {
  92:../Generated_Code/BitIoLdd6.c ****   LDD_TUserData *UserDataPtr;          /* Pointer to user data */
  93:../Generated_Code/BitIoLdd6.c **** } BitIoLdd6_TDeviceData;               /* Device data structure type */
  94:../Generated_Code/BitIoLdd6.c **** 
  95:../Generated_Code/BitIoLdd6.c **** typedef BitIoLdd6_TDeviceData *BitIoLdd6_TDeviceDataPtr ; /* Pointer to the device data structure. 
  96:../Generated_Code/BitIoLdd6.c **** 
  97:../Generated_Code/BitIoLdd6.c **** /* {Default RTOS Adapter} Static object used for simulation of dynamic driver memory allocation */
  98:../Generated_Code/BitIoLdd6.c **** static BitIoLdd6_TDeviceData DeviceDataPrv__DEFAULT_RTOS_ALLOC;
  99:../Generated_Code/BitIoLdd6.c **** /*
 100:../Generated_Code/BitIoLdd6.c **** ** ===================================================================
 101:../Generated_Code/BitIoLdd6.c **** **     Method      :  BitIoLdd6_Init (component BitIO_LDD)
 102:../Generated_Code/BitIoLdd6.c **** */
 103:../Generated_Code/BitIoLdd6.c **** /*!
 104:../Generated_Code/BitIoLdd6.c **** **     @brief
 105:../Generated_Code/BitIoLdd6.c **** **         Initializes the device. Allocates memory for the device data
 106:../Generated_Code/BitIoLdd6.c **** **         structure, allocates interrupt vectors and sets interrupt
 107:../Generated_Code/BitIoLdd6.c **** **         priority, sets pin routing, sets timing, etc. If the "Enable
 108:../Generated_Code/BitIoLdd6.c **** **         in init. code" is set to "yes" value then the device is also
 109:../Generated_Code/BitIoLdd6.c **** **         enabled(see the description of the Enable() method). In this
 110:../Generated_Code/BitIoLdd6.c **** **         case the Enable() method is not necessary and needn't to be
 111:../Generated_Code/BitIoLdd6.c **** **         generated. 
 112:../Generated_Code/BitIoLdd6.c **** **     @param
 113:../Generated_Code/BitIoLdd6.c **** **         UserDataPtr     - Pointer to the user or
 114:../Generated_Code/BitIoLdd6.c **** **                           RTOS specific data. This pointer will be
 115:../Generated_Code/BitIoLdd6.c **** **                           passed as an event or callback parameter.
 116:../Generated_Code/BitIoLdd6.c **** **     @return
 117:../Generated_Code/BitIoLdd6.c **** **                         - Pointer to the dynamically allocated private
 118:../Generated_Code/BitIoLdd6.c **** **                           structure or NULL if there was an error.
 119:../Generated_Code/BitIoLdd6.c **** */
 120:../Generated_Code/BitIoLdd6.c **** /* ===================================================================*/
 121:../Generated_Code/BitIoLdd6.c **** LDD_TDeviceData* BitIoLdd6_Init(LDD_TUserData *UserDataPtr)
 122:../Generated_Code/BitIoLdd6.c **** {
  32              		.loc 1 122 0
  33              		.cfi_startproc
  34 0000 80B5     		push	{r7, lr}
  35              	.LCFI0:
  36              		.cfi_def_cfa_offset 8
  37              		.cfi_offset 7, -8
  38              		.cfi_offset 14, -4
  39 0002 84B0     		sub	sp, sp, #16
  40              	.LCFI1:
  41              		.cfi_def_cfa_offset 24
  42 0004 00AF     		add	r7, sp, #0
  43              	.LCFI2:
  44              		.cfi_def_cfa_register 7
  45 0006 7860     		str	r0, [r7, #4]
 123:../Generated_Code/BitIoLdd6.c ****   /* Allocate device structure */
 124:../Generated_Code/BitIoLdd6.c ****   BitIoLdd6_TDeviceDataPtr DeviceDataPrv;
 125:../Generated_Code/BitIoLdd6.c **** 
 126:../Generated_Code/BitIoLdd6.c ****   /* {Default RTOS Adapter} Driver memory allocation: Dynamic allocation is simulated by a pointer 
 127:../Generated_Code/BitIoLdd6.c ****   DeviceDataPrv = &DeviceDataPrv__DEFAULT_RTOS_ALLOC;
  46              		.loc 1 127 0
  47 0008 104B     		ldr	r3, .L3
  48 000a FB60     		str	r3, [r7, #12]
 128:../Generated_Code/BitIoLdd6.c ****   DeviceDataPrv->UserDataPtr = UserDataPtr; /* Store the RTOS device structure */
  49              		.loc 1 128 0
  50 000c FB68     		ldr	r3, [r7, #12]
  51 000e 7A68     		ldr	r2, [r7, #4]
  52 0010 1A60     		str	r2, [r3]
 129:../Generated_Code/BitIoLdd6.c ****   /* Configure pin as input */
 130:../Generated_Code/BitIoLdd6.c ****   /* GPIOC_PDDR: PDD&=~0x00020000 */
 131:../Generated_Code/BitIoLdd6.c ****   GPIOC_PDDR &= (uint32_t)~(uint32_t)(GPIO_PDDR_PDD(0x00020000));
  53              		.loc 1 131 0
  54 0012 0F4B     		ldr	r3, .L3+4
  55 0014 0E4A     		ldr	r2, .L3+4
  56 0016 5169     		ldr	r1, [r2, #20]
  57 0018 0E4A     		ldr	r2, .L3+8
  58 001a 0A40     		and	r2, r1
  59 001c 5A61     		str	r2, [r3, #20]
 132:../Generated_Code/BitIoLdd6.c ****   /* Set initialization value */
 133:../Generated_Code/BitIoLdd6.c ****   /* GPIOC_PDOR: PDO&=~0x00020000 */
 134:../Generated_Code/BitIoLdd6.c ****   GPIOC_PDOR &= (uint32_t)~(uint32_t)(GPIO_PDOR_PDO(0x00020000));
  60              		.loc 1 134 0
  61 001e 0C4B     		ldr	r3, .L3+4
  62 0020 0B4A     		ldr	r2, .L3+4
  63 0022 1168     		ldr	r1, [r2]
  64 0024 0B4A     		ldr	r2, .L3+8
  65 0026 0A40     		and	r2, r1
  66 0028 1A60     		str	r2, [r3]
 135:../Generated_Code/BitIoLdd6.c ****   /* Initialization of Port Control register */
 136:../Generated_Code/BitIoLdd6.c ****   /* PORTC_PCR17: ISF=0,MUX=1 */
 137:../Generated_Code/BitIoLdd6.c ****   PORTC_PCR17 = (uint32_t)((PORTC_PCR17 & (uint32_t)~(uint32_t)(
  67              		.loc 1 137 0
  68 002a 0B4B     		ldr	r3, .L3+12
  69 002c 0A4A     		ldr	r2, .L3+12
  70 002e 516C     		ldr	r1, [r2, #68]
  71 0030 0A4A     		ldr	r2, .L3+16
  72 0032 0A40     		and	r2, r1
  73 0034 8021     		mov	r1, #128
  74 0036 4900     		lsl	r1, r1, #1
  75 0038 0A43     		orr	r2, r1
  76 003a 5A64     		str	r2, [r3, #68]
 138:../Generated_Code/BitIoLdd6.c ****                  PORT_PCR_ISF_MASK |
 139:../Generated_Code/BitIoLdd6.c ****                  PORT_PCR_MUX(0x06)
 140:../Generated_Code/BitIoLdd6.c ****                 )) | (uint32_t)(
 141:../Generated_Code/BitIoLdd6.c ****                  PORT_PCR_MUX(0x01)
 142:../Generated_Code/BitIoLdd6.c ****                 ));
 143:../Generated_Code/BitIoLdd6.c ****   /* Registration of the device structure */
 144:../Generated_Code/BitIoLdd6.c ****   PE_LDD_RegisterDeviceStructure(PE_LDD_COMPONENT_BitIoLdd6_ID,DeviceDataPrv);
  77              		.loc 1 144 0
  78 003c 084B     		ldr	r3, .L3+20
  79 003e FA68     		ldr	r2, [r7, #12]
  80 0040 9A61     		str	r2, [r3, #24]
 145:../Generated_Code/BitIoLdd6.c ****   return ((LDD_TDeviceData *)DeviceDataPrv);
  81              		.loc 1 145 0
  82 0042 FB68     		ldr	r3, [r7, #12]
 146:../Generated_Code/BitIoLdd6.c **** }
  83              		.loc 1 146 0
  84 0044 181C     		mov	r0, r3
  85 0046 BD46     		mov	sp, r7
  86 0048 04B0     		add	sp, sp, #16
  87              		@ sp needed for prologue
  88 004a 80BD     		pop	{r7, pc}
  89              	.L4:
  90              		.align	2
  91              	.L3:
  92 004c 00000000 		.word	DeviceDataPrv__DEFAULT_RTOS_ALLOC
  93 0050 80F00F40 		.word	1074786432
  94 0054 FFFFFDFF 		.word	-131073
  95 0058 00B00440 		.word	1074049024
  96 005c FFF8FFFE 		.word	-16779009
  97 0060 00000000 		.word	PE_LDD_DeviceDataList
  98              		.cfi_endproc
  99              	.LFE0:
 101              		.section	.text.BitIoLdd6_SetDir,"ax",%progbits
 102              		.align	2
 103              		.global	BitIoLdd6_SetDir
 104              		.code	16
 105              		.thumb_func
 107              	BitIoLdd6_SetDir:
 108              	.LFB1:
 147:../Generated_Code/BitIoLdd6.c **** /*
 148:../Generated_Code/BitIoLdd6.c **** ** ===================================================================
 149:../Generated_Code/BitIoLdd6.c **** **     Method      :  BitIoLdd6_SetDir (component BitIO_LDD)
 150:../Generated_Code/BitIoLdd6.c **** */
 151:../Generated_Code/BitIoLdd6.c **** /*!
 152:../Generated_Code/BitIoLdd6.c **** **     @brief
 153:../Generated_Code/BitIoLdd6.c **** **         Sets a pin direction (available only if the direction =
 154:../Generated_Code/BitIoLdd6.c **** **         _[input/output]_).
 155:../Generated_Code/BitIoLdd6.c **** **     @param
 156:../Generated_Code/BitIoLdd6.c **** **         DeviceDataPtr   - Device data structure
 157:../Generated_Code/BitIoLdd6.c **** **                           pointer returned by <Init> method.
 158:../Generated_Code/BitIoLdd6.c **** **     @param
 159:../Generated_Code/BitIoLdd6.c **** **         Dir             - Direction to set. Possible values:
 160:../Generated_Code/BitIoLdd6.c **** **                           <false> - Input
 161:../Generated_Code/BitIoLdd6.c **** **                           <true> - Output
 162:../Generated_Code/BitIoLdd6.c **** */
 163:../Generated_Code/BitIoLdd6.c **** /* ===================================================================*/
 164:../Generated_Code/BitIoLdd6.c **** void BitIoLdd6_SetDir(LDD_TDeviceData *DeviceDataPtr, bool Dir)
 165:../Generated_Code/BitIoLdd6.c **** {
 109              		.loc 1 165 0
 110              		.cfi_startproc
 111 0000 80B5     		push	{r7, lr}
 112              	.LCFI3:
 113              		.cfi_def_cfa_offset 8
 114              		.cfi_offset 7, -8
 115              		.cfi_offset 14, -4
 116 0002 82B0     		sub	sp, sp, #8
 117              	.LCFI4:
 118              		.cfi_def_cfa_offset 16
 119 0004 00AF     		add	r7, sp, #0
 120              	.LCFI5:
 121              		.cfi_def_cfa_register 7
 122 0006 7860     		str	r0, [r7, #4]
 123 0008 0A1C     		mov	r2, r1
 124 000a FB1C     		add	r3, r7, #3
 125 000c 1A70     		strb	r2, [r3]
 166:../Generated_Code/BitIoLdd6.c ****   (void)DeviceDataPtr;                 /* Parameter is not used, suppress unused argument warning *
 167:../Generated_Code/BitIoLdd6.c ****   if (Dir) {
 126              		.loc 1 167 0
 127 000e FB1C     		add	r3, r7, #3
 128 0010 1B78     		ldrb	r3, [r3]
 129 0012 002B     		cmp	r3, #0
 130 0014 07D0     		beq	.L6
 168:../Generated_Code/BitIoLdd6.c ****     /* Output */
 169:../Generated_Code/BitIoLdd6.c ****     GPIO_PDD_SetPortOutputDirectionMask(BitIoLdd6_MODULE_BASE_ADDRESS, BitIoLdd6_PORT_MASK);
 131              		.loc 1 169 0
 132 0016 084B     		ldr	r3, .L8
 133 0018 074A     		ldr	r2, .L8
 134 001a 5269     		ldr	r2, [r2, #20]
 135 001c 8021     		mov	r1, #128
 136 001e 8902     		lsl	r1, r1, #10
 137 0020 0A43     		orr	r2, r1
 138 0022 5A61     		str	r2, [r3, #20]
 139 0024 05E0     		b	.L5
 140              	.L6:
 170:../Generated_Code/BitIoLdd6.c ****   } else {
 171:../Generated_Code/BitIoLdd6.c ****     /* Input */
 172:../Generated_Code/BitIoLdd6.c ****     GPIO_PDD_SetPortInputDirectionMask(BitIoLdd6_MODULE_BASE_ADDRESS, BitIoLdd6_PORT_MASK);
 141              		.loc 1 172 0
 142 0026 044B     		ldr	r3, .L8
 143 0028 034A     		ldr	r2, .L8
 144 002a 5169     		ldr	r1, [r2, #20]
 145 002c 034A     		ldr	r2, .L8+4
 146 002e 0A40     		and	r2, r1
 147 0030 5A61     		str	r2, [r3, #20]
 148              	.L5:
 173:../Generated_Code/BitIoLdd6.c ****   }
 174:../Generated_Code/BitIoLdd6.c **** }
 149              		.loc 1 174 0
 150 0032 BD46     		mov	sp, r7
 151 0034 02B0     		add	sp, sp, #8
 152              		@ sp needed for prologue
 153 0036 80BD     		pop	{r7, pc}
 154              	.L9:
 155              		.align	2
 156              	.L8:
 157 0038 80F00FF8 		.word	-133173120
 158 003c FFFFFDFF 		.word	-131073
 159              		.cfi_endproc
 160              	.LFE1:
 162              		.section	.text.BitIoLdd6_GetVal,"ax",%progbits
 163              		.align	2
 164              		.global	BitIoLdd6_GetVal
 165              		.code	16
 166              		.thumb_func
 168              	BitIoLdd6_GetVal:
 169              	.LFB2:
 175:../Generated_Code/BitIoLdd6.c **** 
 176:../Generated_Code/BitIoLdd6.c **** /*
 177:../Generated_Code/BitIoLdd6.c **** ** ===================================================================
 178:../Generated_Code/BitIoLdd6.c **** **     Method      :  BitIoLdd6_GetVal (component BitIO_LDD)
 179:../Generated_Code/BitIoLdd6.c **** */
 180:../Generated_Code/BitIoLdd6.c **** /*!
 181:../Generated_Code/BitIoLdd6.c **** **     @brief
 182:../Generated_Code/BitIoLdd6.c **** **         Returns the input/output value. If the direction is [input]
 183:../Generated_Code/BitIoLdd6.c **** **         then the input value of the pin is read and returned. If the
 184:../Generated_Code/BitIoLdd6.c **** **         direction is [output] then the last written value is read
 185:../Generated_Code/BitIoLdd6.c **** **         and returned (see <Safe mode> property for limitations).
 186:../Generated_Code/BitIoLdd6.c **** **         This method cannot be disabled if direction is [input].
 187:../Generated_Code/BitIoLdd6.c **** **     @param
 188:../Generated_Code/BitIoLdd6.c **** **         DeviceDataPtr   - Device data structure
 189:../Generated_Code/BitIoLdd6.c **** **                           pointer returned by <Init> method.
 190:../Generated_Code/BitIoLdd6.c **** **     @return
 191:../Generated_Code/BitIoLdd6.c **** **                         - Input or output value. Possible values:
 192:../Generated_Code/BitIoLdd6.c **** **                           <false> - logical "0" (Low level)
 193:../Generated_Code/BitIoLdd6.c **** **                           <true> - logical "1" (High level)
 194:../Generated_Code/BitIoLdd6.c **** */
 195:../Generated_Code/BitIoLdd6.c **** /* ===================================================================*/
 196:../Generated_Code/BitIoLdd6.c **** bool BitIoLdd6_GetVal(LDD_TDeviceData *DeviceDataPtr)
 197:../Generated_Code/BitIoLdd6.c **** {
 170              		.loc 1 197 0
 171              		.cfi_startproc
 172 0000 80B5     		push	{r7, lr}
 173              	.LCFI6:
 174              		.cfi_def_cfa_offset 8
 175              		.cfi_offset 7, -8
 176              		.cfi_offset 14, -4
 177 0002 84B0     		sub	sp, sp, #16
 178              	.LCFI7:
 179              		.cfi_def_cfa_offset 24
 180 0004 00AF     		add	r7, sp, #0
 181              	.LCFI8:
 182              		.cfi_def_cfa_register 7
 183 0006 7860     		str	r0, [r7, #4]
 198:../Generated_Code/BitIoLdd6.c ****   uint32_t PortData;                   /* Port data masked according to the bit used */
 199:../Generated_Code/BitIoLdd6.c **** 
 200:../Generated_Code/BitIoLdd6.c ****   (void)DeviceDataPtr;                 /* Parameter is not used, suppress unused argument warning *
 201:../Generated_Code/BitIoLdd6.c ****   if ((GPIO_PDD_GetPortDirection(BitIoLdd6_MODULE_BASE_ADDRESS) & BitIoLdd6_PORT_MASK) == 0U) {
 184              		.loc 1 201 0
 185 0008 0D4B     		ldr	r3, .L14
 186 000a 5A69     		ldr	r2, [r3, #20]
 187 000c 8023     		mov	r3, #128
 188 000e 9B02     		lsl	r3, r3, #10
 189 0010 1340     		and	r3, r2
 190 0012 06D1     		bne	.L11
 202:../Generated_Code/BitIoLdd6.c ****     /* Port is configured as input */
 203:../Generated_Code/BitIoLdd6.c ****     PortData = GPIO_PDD_GetPortDataInput(BitIoLdd6_MODULE_BASE_ADDRESS) & BitIoLdd6_PORT_MASK;
 191              		.loc 1 203 0
 192 0014 0A4B     		ldr	r3, .L14
 193 0016 1A69     		ldr	r2, [r3, #16]
 194 0018 8023     		mov	r3, #128
 195 001a 9B02     		lsl	r3, r3, #10
 196 001c 1340     		and	r3, r2
 197 001e FB60     		str	r3, [r7, #12]
 198 0020 05E0     		b	.L12
 199              	.L11:
 204:../Generated_Code/BitIoLdd6.c ****   } else {
 205:../Generated_Code/BitIoLdd6.c ****     /* Port is configured as output */
 206:../Generated_Code/BitIoLdd6.c ****     PortData = GPIO_PDD_GetPortDataOutput(BitIoLdd6_MODULE_BASE_ADDRESS) & BitIoLdd6_PORT_MASK;
 200              		.loc 1 206 0
 201 0022 074B     		ldr	r3, .L14
 202 0024 1A68     		ldr	r2, [r3]
 203 0026 8023     		mov	r3, #128
 204 0028 9B02     		lsl	r3, r3, #10
 205 002a 1340     		and	r3, r2
 206 002c FB60     		str	r3, [r7, #12]
 207              	.L12:
 207:../Generated_Code/BitIoLdd6.c ****   }
 208:../Generated_Code/BitIoLdd6.c ****   return (PortData != 0U) ? (bool)TRUE : (bool)FALSE;
 208              		.loc 1 208 0
 209 002e FB68     		ldr	r3, [r7, #12]
 210 0030 5A1E     		sub	r2, r3, #1
 211 0032 9341     		sbc	r3, r3, r2
 212 0034 DBB2     		uxtb	r3, r3
 209:../Generated_Code/BitIoLdd6.c **** }
 213              		.loc 1 209 0
 214 0036 181C     		mov	r0, r3
 215 0038 BD46     		mov	sp, r7
 216 003a 04B0     		add	sp, sp, #16
 217              		@ sp needed for prologue
 218 003c 80BD     		pop	{r7, pc}
 219              	.L15:
 220 003e C046     		.align	2
 221              	.L14:
 222 0040 80F00FF8 		.word	-133173120
 223              		.cfi_endproc
 224              	.LFE2:
 226              		.section	.text.BitIoLdd6_PutVal,"ax",%progbits
 227              		.align	2
 228              		.global	BitIoLdd6_PutVal
 229              		.code	16
 230              		.thumb_func
 232              	BitIoLdd6_PutVal:
 233              	.LFB3:
 210:../Generated_Code/BitIoLdd6.c **** 
 211:../Generated_Code/BitIoLdd6.c **** /*
 212:../Generated_Code/BitIoLdd6.c **** ** ===================================================================
 213:../Generated_Code/BitIoLdd6.c **** **     Method      :  BitIoLdd6_PutVal (component BitIO_LDD)
 214:../Generated_Code/BitIoLdd6.c **** */
 215:../Generated_Code/BitIoLdd6.c **** /*!
 216:../Generated_Code/BitIoLdd6.c **** **     @brief
 217:../Generated_Code/BitIoLdd6.c **** **         The specified output value is set. If the direction is <b>
 218:../Generated_Code/BitIoLdd6.c **** **         input</b>, the component saves the value to a memory or a
 219:../Generated_Code/BitIoLdd6.c **** **         register and this value will be written to the pin after
 220:../Generated_Code/BitIoLdd6.c **** **         switching to the output mode (using <tt>SetDir(TRUE)</tt>;
 221:../Generated_Code/BitIoLdd6.c **** **         see <a href="BitIOProperties.html#SafeMode">Safe mode</a>
 222:../Generated_Code/BitIoLdd6.c **** **         property for limitations). If the direction is <b>output</b>,
 223:../Generated_Code/BitIoLdd6.c **** **         it writes the value to the pin. (Method is available only if
 224:../Generated_Code/BitIoLdd6.c **** **         the direction = <u><tt>output</tt></u> or <u><tt>
 225:../Generated_Code/BitIoLdd6.c **** **         input/output</tt></u>).
 226:../Generated_Code/BitIoLdd6.c **** **     @param
 227:../Generated_Code/BitIoLdd6.c **** **         DeviceDataPtr   - Device data structure
 228:../Generated_Code/BitIoLdd6.c **** **                           pointer returned by <Init> method.
 229:../Generated_Code/BitIoLdd6.c **** **     @param
 230:../Generated_Code/BitIoLdd6.c **** **         Val             - Output value. Possible values:
 231:../Generated_Code/BitIoLdd6.c **** **                           <false> - logical "0" (Low level)
 232:../Generated_Code/BitIoLdd6.c **** **                           <true> - logical "1" (High level)
 233:../Generated_Code/BitIoLdd6.c **** */
 234:../Generated_Code/BitIoLdd6.c **** /* ===================================================================*/
 235:../Generated_Code/BitIoLdd6.c **** void BitIoLdd6_PutVal(LDD_TDeviceData *DeviceDataPtr, bool Val)
 236:../Generated_Code/BitIoLdd6.c **** {
 234              		.loc 1 236 0
 235              		.cfi_startproc
 236 0000 80B5     		push	{r7, lr}
 237              	.LCFI9:
 238              		.cfi_def_cfa_offset 8
 239              		.cfi_offset 7, -8
 240              		.cfi_offset 14, -4
 241 0002 82B0     		sub	sp, sp, #8
 242              	.LCFI10:
 243              		.cfi_def_cfa_offset 16
 244 0004 00AF     		add	r7, sp, #0
 245              	.LCFI11:
 246              		.cfi_def_cfa_register 7
 247 0006 7860     		str	r0, [r7, #4]
 248 0008 0A1C     		mov	r2, r1
 249 000a FB1C     		add	r3, r7, #3
 250 000c 1A70     		strb	r2, [r3]
 237:../Generated_Code/BitIoLdd6.c ****   (void)DeviceDataPtr;                 /* Parameter is not used, suppress unused argument warning *
 238:../Generated_Code/BitIoLdd6.c ****   if (Val) {
 251              		.loc 1 238 0
 252 000e FB1C     		add	r3, r7, #3
 253 0010 1B78     		ldrb	r3, [r3]
 254 0012 002B     		cmp	r3, #0
 255 0014 04D0     		beq	.L17
 239:../Generated_Code/BitIoLdd6.c ****     GPIO_PDD_SetPortDataOutputMask(BitIoLdd6_MODULE_BASE_ADDRESS, BitIoLdd6_PORT_MASK);
 256              		.loc 1 239 0
 257 0016 064B     		ldr	r3, .L19
 258 0018 8022     		mov	r2, #128
 259 001a 9202     		lsl	r2, r2, #10
 260 001c 5A60     		str	r2, [r3, #4]
 261 001e 03E0     		b	.L16
 262              	.L17:
 240:../Generated_Code/BitIoLdd6.c ****   } else { /* !Val */
 241:../Generated_Code/BitIoLdd6.c ****     GPIO_PDD_ClearPortDataOutputMask(BitIoLdd6_MODULE_BASE_ADDRESS, BitIoLdd6_PORT_MASK);
 263              		.loc 1 241 0
 264 0020 034B     		ldr	r3, .L19
 265 0022 8022     		mov	r2, #128
 266 0024 9202     		lsl	r2, r2, #10
 267 0026 9A60     		str	r2, [r3, #8]
 268              	.L16:
 242:../Generated_Code/BitIoLdd6.c ****   } /* !Val */
 243:../Generated_Code/BitIoLdd6.c **** }
 269              		.loc 1 243 0
 270 0028 BD46     		mov	sp, r7
 271 002a 02B0     		add	sp, sp, #8
 272              		@ sp needed for prologue
 273 002c 80BD     		pop	{r7, pc}
 274              	.L20:
 275 002e C046     		.align	2
 276              	.L19:
 277 0030 80F00FF8 		.word	-133173120
 278              		.cfi_endproc
 279              	.LFE3:
 281              		.section	.text.BitIoLdd6_ClrVal,"ax",%progbits
 282              		.align	2
 283              		.global	BitIoLdd6_ClrVal
 284              		.code	16
 285              		.thumb_func
 287              	BitIoLdd6_ClrVal:
 288              	.LFB4:
 244:../Generated_Code/BitIoLdd6.c **** 
 245:../Generated_Code/BitIoLdd6.c **** /*
 246:../Generated_Code/BitIoLdd6.c **** ** ===================================================================
 247:../Generated_Code/BitIoLdd6.c **** **     Method      :  BitIoLdd6_ClrVal (component BitIO_LDD)
 248:../Generated_Code/BitIoLdd6.c **** */
 249:../Generated_Code/BitIoLdd6.c **** /*!
 250:../Generated_Code/BitIoLdd6.c **** **     @brief
 251:../Generated_Code/BitIoLdd6.c **** **         Clears (set to zero) the output value. It is equivalent to
 252:../Generated_Code/BitIoLdd6.c **** **         the [PutVal(FALSE)]. This method is available only if the
 253:../Generated_Code/BitIoLdd6.c **** **         direction = _[output]_ or _[input/output]_.
 254:../Generated_Code/BitIoLdd6.c **** **     @param
 255:../Generated_Code/BitIoLdd6.c **** **         DeviceDataPtr   - Pointer to device data
 256:../Generated_Code/BitIoLdd6.c **** **                           structure returned by <Init> method.
 257:../Generated_Code/BitIoLdd6.c **** */
 258:../Generated_Code/BitIoLdd6.c **** /* ===================================================================*/
 259:../Generated_Code/BitIoLdd6.c **** void BitIoLdd6_ClrVal(LDD_TDeviceData *DeviceDataPtr)
 260:../Generated_Code/BitIoLdd6.c **** {
 289              		.loc 1 260 0
 290              		.cfi_startproc
 291 0000 80B5     		push	{r7, lr}
 292              	.LCFI12:
 293              		.cfi_def_cfa_offset 8
 294              		.cfi_offset 7, -8
 295              		.cfi_offset 14, -4
 296 0002 82B0     		sub	sp, sp, #8
 297              	.LCFI13:
 298              		.cfi_def_cfa_offset 16
 299 0004 00AF     		add	r7, sp, #0
 300              	.LCFI14:
 301              		.cfi_def_cfa_register 7
 302 0006 7860     		str	r0, [r7, #4]
 261:../Generated_Code/BitIoLdd6.c ****   (void)DeviceDataPtr;                 /* Parameter is not used, suppress unused argument warning *
 262:../Generated_Code/BitIoLdd6.c ****   GPIO_PDD_ClearPortDataOutputMask(BitIoLdd6_MODULE_BASE_ADDRESS, BitIoLdd6_PORT_MASK);
 303              		.loc 1 262 0
 304 0008 034B     		ldr	r3, .L22
 305 000a 8022     		mov	r2, #128
 306 000c 9202     		lsl	r2, r2, #10
 307 000e 9A60     		str	r2, [r3, #8]
 263:../Generated_Code/BitIoLdd6.c **** }
 308              		.loc 1 263 0
 309 0010 BD46     		mov	sp, r7
 310 0012 02B0     		add	sp, sp, #8
 311              		@ sp needed for prologue
 312 0014 80BD     		pop	{r7, pc}
 313              	.L23:
 314 0016 C046     		.align	2
 315              	.L22:
 316 0018 80F00FF8 		.word	-133173120
 317              		.cfi_endproc
 318              	.LFE4:
 320              		.section	.text.BitIoLdd6_SetVal,"ax",%progbits
 321              		.align	2
 322              		.global	BitIoLdd6_SetVal
 323              		.code	16
 324              		.thumb_func
 326              	BitIoLdd6_SetVal:
 327              	.LFB5:
 264:../Generated_Code/BitIoLdd6.c **** 
 265:../Generated_Code/BitIoLdd6.c **** /*
 266:../Generated_Code/BitIoLdd6.c **** ** ===================================================================
 267:../Generated_Code/BitIoLdd6.c **** **     Method      :  BitIoLdd6_SetVal (component BitIO_LDD)
 268:../Generated_Code/BitIoLdd6.c **** */
 269:../Generated_Code/BitIoLdd6.c **** /*!
 270:../Generated_Code/BitIoLdd6.c **** **     @brief
 271:../Generated_Code/BitIoLdd6.c **** **         Sets (to one) the output value. It is equivalent to the
 272:../Generated_Code/BitIoLdd6.c **** **         [PutVal(TRUE)]. This method is available only if the
 273:../Generated_Code/BitIoLdd6.c **** **         direction = _[output]_ or _[input/output]_.
 274:../Generated_Code/BitIoLdd6.c **** **     @param
 275:../Generated_Code/BitIoLdd6.c **** **         DeviceDataPtr   - Pointer to device data
 276:../Generated_Code/BitIoLdd6.c **** **                           structure returned by <Init> method.
 277:../Generated_Code/BitIoLdd6.c **** */
 278:../Generated_Code/BitIoLdd6.c **** /* ===================================================================*/
 279:../Generated_Code/BitIoLdd6.c **** void BitIoLdd6_SetVal(LDD_TDeviceData *DeviceDataPtr)
 280:../Generated_Code/BitIoLdd6.c **** {
 328              		.loc 1 280 0
 329              		.cfi_startproc
 330 0000 80B5     		push	{r7, lr}
 331              	.LCFI15:
 332              		.cfi_def_cfa_offset 8
 333              		.cfi_offset 7, -8
 334              		.cfi_offset 14, -4
 335 0002 82B0     		sub	sp, sp, #8
 336              	.LCFI16:
 337              		.cfi_def_cfa_offset 16
 338 0004 00AF     		add	r7, sp, #0
 339              	.LCFI17:
 340              		.cfi_def_cfa_register 7
 341 0006 7860     		str	r0, [r7, #4]
 281:../Generated_Code/BitIoLdd6.c ****   (void)DeviceDataPtr;                 /* Parameter is not used, suppress unused argument warning *
 282:../Generated_Code/BitIoLdd6.c ****   GPIO_PDD_SetPortDataOutputMask(BitIoLdd6_MODULE_BASE_ADDRESS, BitIoLdd6_PORT_MASK);
 342              		.loc 1 282 0
 343 0008 034B     		ldr	r3, .L25
 344 000a 8022     		mov	r2, #128
 345 000c 9202     		lsl	r2, r2, #10
 346 000e 5A60     		str	r2, [r3, #4]
 283:../Generated_Code/BitIoLdd6.c **** }
 347              		.loc 1 283 0
 348 0010 BD46     		mov	sp, r7
 349 0012 02B0     		add	sp, sp, #8
 350              		@ sp needed for prologue
 351 0014 80BD     		pop	{r7, pc}
 352              	.L26:
 353 0016 C046     		.align	2
 354              	.L25:
 355 0018 80F00FF8 		.word	-133173120
 356              		.cfi_endproc
 357              	.LFE5:
 359              		.text
 360              	.Letext0:
 361              		.file 2 "D:/Freescale/CW MCU v10.7/MCU/ARM_GCC_Support/ewl/EWL_C/include/cstdint"
 362              		.file 3 "../Generated_Code/PE_Types.h"
 363              		.file 4 "D:/Freescale/CW MCU v10.7/MCU/ProcessorExpert/lib/Kinetis/iofiles/MKL25Z4.h"